   1              		.cpu cortex-m0
   2              		.fpu softvfp
   3              		.eabi_attribute 20, 1
   4              		.eabi_attribute 21, 1
   5              		.eabi_attribute 23, 3
   6              		.eabi_attribute 24, 1
   7              		.eabi_attribute 25, 1
   8              		.eabi_attribute 26, 1
   9              		.eabi_attribute 30, 6
  10              		.eabi_attribute 34, 0
  11              		.eabi_attribute 18, 4
  12              		.code	16
  13              		.file	"CCU4GLOBAL.c"
  14              		.text
  15              	.Ltext0:
  16              		.cfi_sections	.debug_frame
  17              		.section	.text.CCU4GLOBAL_Init,"ax",%progbits
  18              		.align	2
  19              		.global	CCU4GLOBAL_Init
  20              		.code	16
  21              		.thumb_func
  23              	CCU4GLOBAL_Init:
  24              	.LFB38:
  25              		.file 1 "../Dave/Generated/src/CCU4GLOBAL/CCU4GLOBAL.c"
   1:../Dave/Generated/src/CCU4GLOBAL/CCU4GLOBAL.c **** /*CODE_BLOCK_BEGIN[CCU4GLOBAL.c]*/
   2:../Dave/Generated/src/CCU4GLOBAL/CCU4GLOBAL.c **** 
   3:../Dave/Generated/src/CCU4GLOBAL/CCU4GLOBAL.c **** 
   4:../Dave/Generated/src/CCU4GLOBAL/CCU4GLOBAL.c **** /*******************************************************************************
   5:../Dave/Generated/src/CCU4GLOBAL/CCU4GLOBAL.c ****  Copyright (c) 2013, Infineon Technologies AG                                 **
   6:../Dave/Generated/src/CCU4GLOBAL/CCU4GLOBAL.c ****  All rights reserved.                                                         **
   7:../Dave/Generated/src/CCU4GLOBAL/CCU4GLOBAL.c ****                                                                               **
   8:../Dave/Generated/src/CCU4GLOBAL/CCU4GLOBAL.c ****  Redistribution and use in source and binary forms, with or without           **
   9:../Dave/Generated/src/CCU4GLOBAL/CCU4GLOBAL.c ****  modification,are permitted provided that the following conditions are met:   **
  10:../Dave/Generated/src/CCU4GLOBAL/CCU4GLOBAL.c ****                                                                               **
  11:../Dave/Generated/src/CCU4GLOBAL/CCU4GLOBAL.c ****  *Redistributions of source code must retain the above copyright notice,      **
  12:../Dave/Generated/src/CCU4GLOBAL/CCU4GLOBAL.c ****  this list of conditions and the following disclaimer.                        **
  13:../Dave/Generated/src/CCU4GLOBAL/CCU4GLOBAL.c ****  *Redistributions in binary form must reproduce the above copyright notice,   **
  14:../Dave/Generated/src/CCU4GLOBAL/CCU4GLOBAL.c ****  this list of conditions and the following disclaimer in the documentation    **
  15:../Dave/Generated/src/CCU4GLOBAL/CCU4GLOBAL.c ****  and/or other materials provided with the distribution.                       **
  16:../Dave/Generated/src/CCU4GLOBAL/CCU4GLOBAL.c ****  *Neither the name of the copyright holders nor the names of its contributors **
  17:../Dave/Generated/src/CCU4GLOBAL/CCU4GLOBAL.c ****  may be used to endorse or promote products derived from this software without**
  18:../Dave/Generated/src/CCU4GLOBAL/CCU4GLOBAL.c ****  specific prior written permission.                                           **
  19:../Dave/Generated/src/CCU4GLOBAL/CCU4GLOBAL.c ****                                                                               **
  20:../Dave/Generated/src/CCU4GLOBAL/CCU4GLOBAL.c ****  THIS SOFTWARE IS PROVIDED BY THE COPYRIGHT HOLDERS AND CONTRIBUTORS "AS IS"  **
  21:../Dave/Generated/src/CCU4GLOBAL/CCU4GLOBAL.c ****  AND ANY EXPRESS OR IMPLIED WARRANTIES, INCLUDING, BUT NOT LIMITED TO, THE    **
  22:../Dave/Generated/src/CCU4GLOBAL/CCU4GLOBAL.c ****  IMPLIED WARRANTIES OF MERCHANTABILITY AND FITNESS FOR A PARTICULAR PURPOSE   **
  23:../Dave/Generated/src/CCU4GLOBAL/CCU4GLOBAL.c ****  ARE  DISCLAIMED. IN NO EVENT SHALL THE COPYRIGHT HOLDER OR CONTRIBUTORS BE   **
  24:../Dave/Generated/src/CCU4GLOBAL/CCU4GLOBAL.c ****  LIABLE  FOR ANY DIRECT, INDIRECT, INCIDENTAL, SPECIAL, EXEMPLARY, OR         **
  25:../Dave/Generated/src/CCU4GLOBAL/CCU4GLOBAL.c ****  CONSEQUENTIAL DAMAGES (INCLUDING, BUT NOT LIMITED TO, PROCUREMENT OF         **
  26:../Dave/Generated/src/CCU4GLOBAL/CCU4GLOBAL.c ****  SUBSTITUTE GOODS OR  SERVICES; LOSS OF USE, DATA, OR PROFITS; OR BUSINESS    **
  27:../Dave/Generated/src/CCU4GLOBAL/CCU4GLOBAL.c ****  INTERRUPTION) HOWEVER CAUSED AND ON ANY THEORY OF LIABILITY, WHETHER IN      **
  28:../Dave/Generated/src/CCU4GLOBAL/CCU4GLOBAL.c ****  CONTRACT, STRICT LIABILITY,OR TORT (INCLUDING NEGLIGENCE OR OTHERWISE)       **
  29:../Dave/Generated/src/CCU4GLOBAL/CCU4GLOBAL.c ****  ARISING IN ANY WAY OUT OF THE USE OF THIS SOFTWARE, EVEN IF ADVISED OF THE   **
  30:../Dave/Generated/src/CCU4GLOBAL/CCU4GLOBAL.c ****  POSSIBILITY OF SUCH DAMAGE.                                                  **
  31:../Dave/Generated/src/CCU4GLOBAL/CCU4GLOBAL.c ****                                                                               **
  32:../Dave/Generated/src/CCU4GLOBAL/CCU4GLOBAL.c ****  To improve the quality of the software, users are encouraged to share        **
  33:../Dave/Generated/src/CCU4GLOBAL/CCU4GLOBAL.c ****  modifications, enhancements or bug fixes with Infineon Technologies AG       **
  34:../Dave/Generated/src/CCU4GLOBAL/CCU4GLOBAL.c ****  dave@infineon.com).                                                          **
  35:../Dave/Generated/src/CCU4GLOBAL/CCU4GLOBAL.c ****                                                                               **
  36:../Dave/Generated/src/CCU4GLOBAL/CCU4GLOBAL.c **** ********************************************************************************
  37:../Dave/Generated/src/CCU4GLOBAL/CCU4GLOBAL.c **** **                                                                            **
  38:../Dave/Generated/src/CCU4GLOBAL/CCU4GLOBAL.c **** **                                                                            **
  39:../Dave/Generated/src/CCU4GLOBAL/CCU4GLOBAL.c **** ** PLATFORM : Infineon XMC4000/XMC1000 Series                                 **
  40:../Dave/Generated/src/CCU4GLOBAL/CCU4GLOBAL.c **** **                                                                            **
  41:../Dave/Generated/src/CCU4GLOBAL/CCU4GLOBAL.c **** ** COMPILER : Compiler Independent                                            **
  42:../Dave/Generated/src/CCU4GLOBAL/CCU4GLOBAL.c **** **                                                                            **
  43:../Dave/Generated/src/CCU4GLOBAL/CCU4GLOBAL.c **** ** AUTHOR   : App Developer                                                   **
  44:../Dave/Generated/src/CCU4GLOBAL/CCU4GLOBAL.c **** **                                                                            **
  45:../Dave/Generated/src/CCU4GLOBAL/CCU4GLOBAL.c **** ** MAY BE CHANGED BY USER [yes/no]: Yes                                       **
  46:../Dave/Generated/src/CCU4GLOBAL/CCU4GLOBAL.c **** **                                                                            **
  47:../Dave/Generated/src/CCU4GLOBAL/CCU4GLOBAL.c **** ** MODIFICATION DATE : Nov  25, 2013                                          **
  48:../Dave/Generated/src/CCU4GLOBAL/CCU4GLOBAL.c **** **                                                                            **
  49:../Dave/Generated/src/CCU4GLOBAL/CCU4GLOBAL.c **** *******************************************************************************/
  50:../Dave/Generated/src/CCU4GLOBAL/CCU4GLOBAL.c **** /*******************************************************************************
  51:../Dave/Generated/src/CCU4GLOBAL/CCU4GLOBAL.c **** **                      Author(s) Identity                                    **
  52:../Dave/Generated/src/CCU4GLOBAL/CCU4GLOBAL.c **** ********************************************************************************
  53:../Dave/Generated/src/CCU4GLOBAL/CCU4GLOBAL.c **** **                                                                            **
  54:../Dave/Generated/src/CCU4GLOBAL/CCU4GLOBAL.c **** ** Initials     Name                                                          **
  55:../Dave/Generated/src/CCU4GLOBAL/CCU4GLOBAL.c **** ** ---------------------------------------------------------------------------**
  56:../Dave/Generated/src/CCU4GLOBAL/CCU4GLOBAL.c **** ** SNR          App Developer                                                 **
  57:../Dave/Generated/src/CCU4GLOBAL/CCU4GLOBAL.c **** **                                                                            **
  58:../Dave/Generated/src/CCU4GLOBAL/CCU4GLOBAL.c **** *******************************************************************************/
  59:../Dave/Generated/src/CCU4GLOBAL/CCU4GLOBAL.c **** 
  60:../Dave/Generated/src/CCU4GLOBAL/CCU4GLOBAL.c **** /**
  61:../Dave/Generated/src/CCU4GLOBAL/CCU4GLOBAL.c ****  * @file  CCU4GLOBAL.c
  62:../Dave/Generated/src/CCU4GLOBAL/CCU4GLOBAL.c ****  *
  63:../Dave/Generated/src/CCU4GLOBAL/CCU4GLOBAL.c ****  * @brief This file contains implementations of all Public and Private functions
  64:../Dave/Generated/src/CCU4GLOBAL/CCU4GLOBAL.c ****  *        of CCU4GLOBAL App.
  65:../Dave/Generated/src/CCU4GLOBAL/CCU4GLOBAL.c ****  */
  66:../Dave/Generated/src/CCU4GLOBAL/CCU4GLOBAL.c **** /* Revision History
  67:../Dave/Generated/src/CCU4GLOBAL/CCU4GLOBAL.c ****  * 22 March     2012   v1.0.0    Initial version
  68:../Dave/Generated/src/CCU4GLOBAL/CCU4GLOBAL.c ****  * 17 September 2012   v1.0.4    code to disable clock gating for XMC44 devices
  69:../Dave/Generated/src/CCU4GLOBAL/CCU4GLOBAL.c ****  * 25 January   2013   v1.0.10   code to disable clock gating for XMC1  devices
  70:../Dave/Generated/src/CCU4GLOBAL/CCU4GLOBAL.c ****  * 25 November  2013   v1.0.12   Followed coding guidelines
  71:../Dave/Generated/src/CCU4GLOBAL/CCU4GLOBAL.c ****  */
  72:../Dave/Generated/src/CCU4GLOBAL/CCU4GLOBAL.c **** /*******************************************************************************
  73:../Dave/Generated/src/CCU4GLOBAL/CCU4GLOBAL.c **** **                      Include Files                                         **
  74:../Dave/Generated/src/CCU4GLOBAL/CCU4GLOBAL.c **** *******************************************************************************/
  75:../Dave/Generated/src/CCU4GLOBAL/CCU4GLOBAL.c **** 
  76:../Dave/Generated/src/CCU4GLOBAL/CCU4GLOBAL.c **** #include "../../inc/CCU4GLOBAL/CCU4GLOBAL.h"
  77:../Dave/Generated/src/CCU4GLOBAL/CCU4GLOBAL.c **** 
  78:../Dave/Generated/src/CCU4GLOBAL/CCU4GLOBAL.c **** static void CCU4Global_lInit(const CCU4Global_HandleType * Handle);
  79:../Dave/Generated/src/CCU4GLOBAL/CCU4GLOBAL.c **** 
  80:../Dave/Generated/src/CCU4GLOBAL/CCU4GLOBAL.c **** /*******************************************************************************
  81:../Dave/Generated/src/CCU4GLOBAL/CCU4GLOBAL.c **** **                 Public Function declarations                              **
  82:../Dave/Generated/src/CCU4GLOBAL/CCU4GLOBAL.c **** *******************************************************************************/
  83:../Dave/Generated/src/CCU4GLOBAL/CCU4GLOBAL.c **** /**
  84:../Dave/Generated/src/CCU4GLOBAL/CCU4GLOBAL.c ****  * @cond INTERNAL_DOCS
  85:../Dave/Generated/src/CCU4GLOBAL/CCU4GLOBAL.c ****  */
  86:../Dave/Generated/src/CCU4GLOBAL/CCU4GLOBAL.c **** 
  87:../Dave/Generated/src/CCU4GLOBAL/CCU4GLOBAL.c **** void CCU4GLOBAL_Init(void)
  88:../Dave/Generated/src/CCU4GLOBAL/CCU4GLOBAL.c **** {
  26              		.loc 1 88 0
  27              		.cfi_startproc
  28 0000 80B5     		push	{r7, lr}
  29              	.LCFI0:
  30              		.cfi_def_cfa_offset 8
  31              		.cfi_offset 7, -8
  32              		.cfi_offset 14, -4
  33 0002 82B0     		sub	sp, sp, #8
  34              	.LCFI1:
  35              		.cfi_def_cfa_offset 16
  36 0004 00AF     		add	r7, sp, #0
  37              	.LCFI2:
  38              		.cfi_def_cfa_register 7
  89:../Dave/Generated/src/CCU4GLOBAL/CCU4GLOBAL.c ****   static uint32_t CCU4InitCalled = (uint32_t)0U;
  90:../Dave/Generated/src/CCU4GLOBAL/CCU4GLOBAL.c ****   uint32_t Count = 0U;
  39              		.loc 1 90 0
  40 0006 0023     		mov	r3, #0
  41 0008 7B60     		str	r3, [r7, #4]
  91:../Dave/Generated/src/CCU4GLOBAL/CCU4GLOBAL.c ****   
  92:../Dave/Generated/src/CCU4GLOBAL/CCU4GLOBAL.c ****   if(CCU4InitCalled == (uint32_t)0U)
  42              		.loc 1 92 0
  43 000a 0E4B     		ldr	r3, .L5
  44 000c 1B68     		ldr	r3, [r3]
  45 000e 002B     		cmp	r3, #0
  46 0010 14D1     		bne	.L1
  93:../Dave/Generated/src/CCU4GLOBAL/CCU4GLOBAL.c ****   {
  94:../Dave/Generated/src/CCU4GLOBAL/CCU4GLOBAL.c ****     /*
  95:../Dave/Generated/src/CCU4GLOBAL/CCU4GLOBAL.c ****      * Each instance of the App brings the module out of reset and enable 
  96:../Dave/Generated/src/CCU4GLOBAL/CCU4GLOBAL.c ****      * the prescalar clock
  97:../Dave/Generated/src/CCU4GLOBAL/CCU4GLOBAL.c ****      */
  98:../Dave/Generated/src/CCU4GLOBAL/CCU4GLOBAL.c ****     /* Initialise the clock */
  99:../Dave/Generated/src/CCU4GLOBAL/CCU4GLOBAL.c **** 	#if (UC_FAMILY == XMC4)     
 100:../Dave/Generated/src/CCU4GLOBAL/CCU4GLOBAL.c **** 		CLK001_Init();     
 101:../Dave/Generated/src/CCU4GLOBAL/CCU4GLOBAL.c **** 	#endif		
 102:../Dave/Generated/src/CCU4GLOBAL/CCU4GLOBAL.c **** 	
 103:../Dave/Generated/src/CCU4GLOBAL/CCU4GLOBAL.c **** 	#if (UC_FAMILY == XMC1)    
 104:../Dave/Generated/src/CCU4GLOBAL/CCU4GLOBAL.c **** 		CLK002_Init();
  47              		.loc 1 104 0
  48 0012 FFF7FEFF 		bl	CLK002_Init
 105:../Dave/Generated/src/CCU4GLOBAL/CCU4GLOBAL.c **** 	#endif
 106:../Dave/Generated/src/CCU4GLOBAL/CCU4GLOBAL.c ****     
 107:../Dave/Generated/src/CCU4GLOBAL/CCU4GLOBAL.c ****     for (Count = 0U; Count<(uint32_t)CCU4GLOBAL_NUM_INSTANCES; Count++)
  49              		.loc 1 107 0
  50 0016 0023     		mov	r3, #0
  51 0018 7B60     		str	r3, [r7, #4]
  52 001a 09E0     		b	.L3
  53              	.L4:
 108:../Dave/Generated/src/CCU4GLOBAL/CCU4GLOBAL.c ****     {
 109:../Dave/Generated/src/CCU4GLOBAL/CCU4GLOBAL.c ****   	  CCU4Global_lInit(CCU4Global_HandleArray[Count]);
  54              		.loc 1 109 0 discriminator 2
  55 001c 0A4B     		ldr	r3, .L5+4
  56 001e 7A68     		ldr	r2, [r7, #4]
  57 0020 9200     		lsl	r2, r2, #2
  58 0022 D358     		ldr	r3, [r2, r3]
  59 0024 181C     		mov	r0, r3
  60 0026 FFF7FEFF 		bl	CCU4Global_lInit
 107:../Dave/Generated/src/CCU4GLOBAL/CCU4GLOBAL.c ****     for (Count = 0U; Count<(uint32_t)CCU4GLOBAL_NUM_INSTANCES; Count++)
  61              		.loc 1 107 0 discriminator 2
  62 002a 7B68     		ldr	r3, [r7, #4]
  63 002c 0133     		add	r3, r3, #1
  64 002e 7B60     		str	r3, [r7, #4]
  65              	.L3:
 107:../Dave/Generated/src/CCU4GLOBAL/CCU4GLOBAL.c ****     for (Count = 0U; Count<(uint32_t)CCU4GLOBAL_NUM_INSTANCES; Count++)
  66              		.loc 1 107 0 is_stmt 0 discriminator 1
  67 0030 7B68     		ldr	r3, [r7, #4]
  68 0032 002B     		cmp	r3, #0
  69 0034 F2D0     		beq	.L4
 110:../Dave/Generated/src/CCU4GLOBAL/CCU4GLOBAL.c ****     }
 111:../Dave/Generated/src/CCU4GLOBAL/CCU4GLOBAL.c **** 
 112:../Dave/Generated/src/CCU4GLOBAL/CCU4GLOBAL.c ****     CCU4InitCalled = (uint32_t)1;
  70              		.loc 1 112 0 is_stmt 1
  71 0036 034B     		ldr	r3, .L5
  72 0038 0122     		mov	r2, #1
  73 003a 1A60     		str	r2, [r3]
  74              	.L1:
 113:../Dave/Generated/src/CCU4GLOBAL/CCU4GLOBAL.c ****   }
 114:../Dave/Generated/src/CCU4GLOBAL/CCU4GLOBAL.c **** }
  75              		.loc 1 114 0
  76 003c BD46     		mov	sp, r7
  77 003e 02B0     		add	sp, sp, #8
  78              		@ sp needed for prologue
  79 0040 80BD     		pop	{r7, pc}
  80              	.L6:
  81 0042 C046     		.align	2
  82              	.L5:
  83 0044 00000000 		.word	CCU4InitCalled.4864
  84 0048 00000000 		.word	CCU4Global_HandleArray
  85              		.cfi_endproc
  86              	.LFE38:
  88              		.section	.text.CCU4Global_lInit,"ax",%progbits
  89              		.align	2
  90              		.code	16
  91              		.thumb_func
  93              	CCU4Global_lInit:
  94              	.LFB39:
 115:../Dave/Generated/src/CCU4GLOBAL/CCU4GLOBAL.c **** 
 116:../Dave/Generated/src/CCU4GLOBAL/CCU4GLOBAL.c **** static void CCU4Global_lInit(const CCU4Global_HandleType * Handle)
 117:../Dave/Generated/src/CCU4GLOBAL/CCU4GLOBAL.c **** {
  95              		.loc 1 117 0
  96              		.cfi_startproc
  97 0000 90B5     		push	{r4, r7, lr}
  98              	.LCFI3:
  99              		.cfi_def_cfa_offset 12
 100              		.cfi_offset 4, -12
 101              		.cfi_offset 7, -8
 102              		.cfi_offset 14, -4
 103 0002 83B0     		sub	sp, sp, #12
 104              	.LCFI4:
 105              		.cfi_def_cfa_offset 24
 106 0004 00AF     		add	r7, sp, #0
 107              	.LCFI5:
 108              		.cfi_def_cfa_register 7
 109 0006 7860     		str	r0, [r7, #4]
 118:../Dave/Generated/src/CCU4GLOBAL/CCU4GLOBAL.c ****     if( Handle->KernelNumber <= 2 )
 110              		.loc 1 118 0
 111 0008 7B68     		ldr	r3, [r7, #4]
 112 000a 5B68     		ldr	r3, [r3, #4]
 113 000c 022B     		cmp	r3, #2
 114 000e 23D8     		bhi	.L8
 119:../Dave/Generated/src/CCU4GLOBAL/CCU4GLOBAL.c **** 	{
 120:../Dave/Generated/src/CCU4GLOBAL/CCU4GLOBAL.c **** 		/* Disables the gating for CCU4 kernel */      
 121:../Dave/Generated/src/CCU4GLOBAL/CCU4GLOBAL.c **** 		/*This is applicable for XMC4400,XMC4200 and XMC1xxx Devices*/
 122:../Dave/Generated/src/CCU4GLOBAL/CCU4GLOBAL.c **** 		#if (UC_FAMILY == XMC1 )
 123:../Dave/Generated/src/CCU4GLOBAL/CCU4GLOBAL.c **** 			if (!((uint32_t)SCU_CLK->CGATCLR0 & Handle->ClockGating))
 115              		.loc 1 123 0
 116 0010 174B     		ldr	r3, .L10
 117 0012 1A69     		ldr	r2, [r3, #16]
 118 0014 7B68     		ldr	r3, [r7, #4]
 119 0016 9B68     		ldr	r3, [r3, #8]
 120 0018 1340     		and	r3, r2
 121 001a 1DD1     		bne	.L8
 124:../Dave/Generated/src/CCU4GLOBAL/CCU4GLOBAL.c **** 			{ 
 125:../Dave/Generated/src/CCU4GLOBAL/CCU4GLOBAL.c **** 				SCU_GENERAL->PASSWD = 0x000000C0UL;
 122              		.loc 1 125 0
 123 001c 154B     		ldr	r3, .L10+4
 124 001e C022     		mov	r2, #192
 125 0020 5A62     		str	r2, [r3, #36]
 126:../Dave/Generated/src/CCU4GLOBAL/CCU4GLOBAL.c **** 				WR_REG(SCU_CLK->CLKCR, SCU_CLK_CLKCR_CNTADJ_Msk, 
 126              		.loc 1 126 0
 127 0022 134B     		ldr	r3, .L10
 128 0024 124A     		ldr	r2, .L10
 129 0026 1268     		ldr	r2, [r2]
 130 0028 1349     		ldr	r1, .L10+8
 131 002a 0A43     		orr	r2, r1
 132 002c 1A60     		str	r2, [r3]
 127:../Dave/Generated/src/CCU4GLOBAL/CCU4GLOBAL.c **** 					   SCU_CLK_CLKCR_CNTADJ_Pos,CCU4GLOBAL_DELAYCNT);
 128:../Dave/Generated/src/CCU4GLOBAL/CCU4GLOBAL.c **** 				
 129:../Dave/Generated/src/CCU4GLOBAL/CCU4GLOBAL.c **** 				SET_BIT(SCU_CLK->CGATCLR0, Handle->ClockGating);
 133              		.loc 1 129 0
 134 002e 104B     		ldr	r3, .L10
 135 0030 0F4A     		ldr	r2, .L10
 136 0032 1169     		ldr	r1, [r2, #16]
 137 0034 7A68     		ldr	r2, [r7, #4]
 138 0036 9268     		ldr	r2, [r2, #8]
 139 0038 0120     		mov	r0, #1
 140 003a 041C     		mov	r4, r0
 141 003c 9440     		lsl	r4, r4, r2
 142 003e 221C     		mov	r2, r4
 143 0040 0A43     		orr	r2, r1
 144 0042 1A61     		str	r2, [r3, #16]
 130:../Dave/Generated/src/CCU4GLOBAL/CCU4GLOBAL.c **** 				while ((uint32_t)SCU_CLK->CLKCR & 
 145              		.loc 1 130 0
 146 0044 C046     		mov	r8, r8
 147              	.L9:
 148              		.loc 1 130 0 is_stmt 0 discriminator 1
 149 0046 0A4B     		ldr	r3, .L10
 150 0048 1A68     		ldr	r2, [r3]
 151 004a 8023     		mov	r3, #128
 152 004c DB05     		lsl	r3, r3, #23
 153 004e 1340     		and	r3, r2
 154 0050 F9D1     		bne	.L9
 131:../Dave/Generated/src/CCU4GLOBAL/CCU4GLOBAL.c **** 					   (uint32_t)SCU_CLK_CLKCR_VDDC2LOW_Msk)
 132:../Dave/Generated/src/CCU4GLOBAL/CCU4GLOBAL.c **** 				{
 133:../Dave/Generated/src/CCU4GLOBAL/CCU4GLOBAL.c **** 					;
 134:../Dave/Generated/src/CCU4GLOBAL/CCU4GLOBAL.c **** 				}
 135:../Dave/Generated/src/CCU4GLOBAL/CCU4GLOBAL.c **** 				SCU_GENERAL->PASSWD = 0x000000C3UL;
 155              		.loc 1 135 0 is_stmt 1
 156 0052 084B     		ldr	r3, .L10+4
 157 0054 C322     		mov	r2, #195
 158 0056 5A62     		str	r2, [r3, #36]
 159              	.L8:
 136:../Dave/Generated/src/CCU4GLOBAL/CCU4GLOBAL.c **** 			}
 137:../Dave/Generated/src/CCU4GLOBAL/CCU4GLOBAL.c **** 		#endif
 138:../Dave/Generated/src/CCU4GLOBAL/CCU4GLOBAL.c **** 		#if ((__TARGET_DEVICE__ == XMC42) || (__TARGET_DEVICE__ == XMC44))
 139:../Dave/Generated/src/CCU4GLOBAL/CCU4GLOBAL.c ****             	SET_BIT(SCU_CLK->CGATCLR0, Handle->ClockGating);
 140:../Dave/Generated/src/CCU4GLOBAL/CCU4GLOBAL.c **** 		#endif
 141:../Dave/Generated/src/CCU4GLOBAL/CCU4GLOBAL.c **** 	}
 142:../Dave/Generated/src/CCU4GLOBAL/CCU4GLOBAL.c **** 	#if (__TARGET_DEVICE__ == XMC44)		    
 143:../Dave/Generated/src/CCU4GLOBAL/CCU4GLOBAL.c **** 	else
 144:../Dave/Generated/src/CCU4GLOBAL/CCU4GLOBAL.c **** 	{   
 145:../Dave/Generated/src/CCU4GLOBAL/CCU4GLOBAL.c **** 			SET_BIT(SCU_CLK->CGATCLR1, Handle->ClockGating);
 146:../Dave/Generated/src/CCU4GLOBAL/CCU4GLOBAL.c **** 	}
 147:../Dave/Generated/src/CCU4GLOBAL/CCU4GLOBAL.c **** 	#endif
 148:../Dave/Generated/src/CCU4GLOBAL/CCU4GLOBAL.c **** 	
 149:../Dave/Generated/src/CCU4GLOBAL/CCU4GLOBAL.c **** 	#if (UC_FAMILY == XMC4)
 150:../Dave/Generated/src/CCU4GLOBAL/CCU4GLOBAL.c **** 		/* Deassert the peripheral */
 151:../Dave/Generated/src/CCU4GLOBAL/CCU4GLOBAL.c **** 		/*This is applicable for XMC4500, XMC4400 and XMC4200 Devices*/
 152:../Dave/Generated/src/CCU4GLOBAL/CCU4GLOBAL.c **** 		RESET001_DeassertReset(Handle->PeripheralReset);
 153:../Dave/Generated/src/CCU4GLOBAL/CCU4GLOBAL.c **** 	#endif    
 154:../Dave/Generated/src/CCU4GLOBAL/CCU4GLOBAL.c **** 
 155:../Dave/Generated/src/CCU4GLOBAL/CCU4GLOBAL.c **** 		
 156:../Dave/Generated/src/CCU4GLOBAL/CCU4GLOBAL.c ****     /* Sets Run bit of the Prescalar */
 157:../Dave/Generated/src/CCU4GLOBAL/CCU4GLOBAL.c ****     SET_BIT(Handle->CC4yKernRegsPtr->GIDLC,CCU4_GIDLC_SPRB_Pos);
 160              		.loc 1 157 0
 161 0058 7B68     		ldr	r3, [r7, #4]
 162 005a 1B68     		ldr	r3, [r3]
 163 005c 7A68     		ldr	r2, [r7, #4]
 164 005e 1268     		ldr	r2, [r2]
 165 0060 D268     		ldr	r2, [r2, #12]
 166 0062 8021     		mov	r1, #128
 167 0064 4900     		lsl	r1, r1, #1
 168 0066 0A43     		orr	r2, r1
 169 0068 DA60     		str	r2, [r3, #12]
 158:../Dave/Generated/src/CCU4GLOBAL/CCU4GLOBAL.c **** 
 159:../Dave/Generated/src/CCU4GLOBAL/CCU4GLOBAL.c **** }
 170              		.loc 1 159 0
 171 006a BD46     		mov	sp, r7
 172 006c 03B0     		add	sp, sp, #12
 173              		@ sp needed for prologue
 174 006e 90BD     		pop	{r4, r7, pc}
 175              	.L11:
 176              		.align	2
 177              	.L10:
 178 0070 00030140 		.word	1073808128
 179 0074 00000140 		.word	1073807360
 180 0078 0000F03F 		.word	1072693248
 181              		.cfi_endproc
 182              	.LFE39:
 184              		.bss
 185              		.align	2
 186              	CCU4InitCalled.4864:
 187 0000 00000000 		.space	4
 188              		.text
 189              	.Letext0:
 190              		.file 2 "C:\\DAVE-3.1.10\\eclipse\\/../CMSIS/Infineon/XMC1100_series/Include/XMC1100.h"
 191              		.file 3 "c:\\dave-3.1.10\\arm-gcc\\bin\\../lib/gcc/arm-none-eabi/4.7.4/../../../../arm-none-eabi/i
 192              		.file 4 "../Dave/Generated/src/CCU4GLOBAL/../../inc/CCU4GLOBAL/CCU4GLOBAL.h"
 193              		.file 5 "../Dave/Generated/src/CCU4GLOBAL/../../inc/CCU4GLOBAL/CCU4Global_Extern.h"