
PWMSP001_Example1_XMC11.elf:     file format elf32-littlearm

Sections:
Idx Name          Size      VMA       LMA       File off  Algn
  0 .text         00002e18  10001000  10001000  00001000  2**2
                  CONTENTS, ALLOC, LOAD, READONLY, CODE
  1 .ARM.exidx    00000010  10003e18  10003e18  00003e18  2**2
                  CONTENTS, ALLOC, LOAD, READONLY, DATA
  2 .rodata       000000d8  10003e28  10003e28  00003e28  2**2
                  CONTENTS, ALLOC, LOAD, READONLY, DATA
  3 .VENEER_Code  00000110  2000000c  10003f00  0000800c  2**2
                  CONTENTS, ALLOC, LOAD, READONLY, CODE
  4 .GUARD_Band   00000004  2000011c  00000000  0000011c  2**0
                  ALLOC
  5 Stack         00000800  20000120  00000000  00000120  2**0
                  ALLOC
  6 .bss          0000001c  20000920  20000920  00010920  2**2
                  ALLOC
  7 .data         00000008  20000940  10004010  00008940  2**2
                  CONTENTS, ALLOC, LOAD, DATA
  8 .debug_aranges 00000398  00000000  00000000  00008948  2**3
                  CONTENTS, READONLY, DEBUGGING
  9 .debug_info   0000417e  00000000  00000000  00008ce0  2**0
                  CONTENTS, READONLY, DEBUGGING
 10 .debug_abbrev 00000c2b  00000000  00000000  0000ce5e  2**0
                  CONTENTS, READONLY, DEBUGGING
 11 .debug_line   000051e5  00000000  00000000  0000da89  2**0
                  CONTENTS, READONLY, DEBUGGING
 12 .debug_frame  00000b84  00000000  00000000  00012c70  2**2
                  CONTENTS, READONLY, DEBUGGING
 13 .debug_str    00025fb3  00000000  00000000  000137f4  2**0
                  CONTENTS, READONLY, DEBUGGING
 14 .debug_loc    00000ee0  00000000  00000000  000397a7  2**0
                  CONTENTS, READONLY, DEBUGGING
 15 .debug_ranges 000002d0  00000000  00000000  0003a688  2**3
                  CONTENTS, READONLY, DEBUGGING
 16 .build_attributes 0000048f  00000000  00000000  0003a958  2**0
                  CONTENTS, READONLY
 17 .debug_macro  00007ccf  00000000  00000000  0003ade7  2**0
                  CONTENTS, READONLY, DEBUGGING

Disassembly of section .text:

10001000 <__Xmc1100_interrupt_vector_cortex_m>:
10001000:	20 09 00 20 19 10 00 10 d5 10 00 10 d7 10 00 10      .. ............
10001010:	00 04 00 00 00 00 00 00                             ........

10001018 <__Xmc1100_reset_cortex_m>:
__Xmc1100_reset_cortex_m:
    .fnstart

    /* C routines are likely to be called. Setup the stack now */
    /* This is already setup by BootROM,hence this step is optional */ 
    LDR R0,=__Xmc1100_stack
10001018:	4802      	ldr	r0, [pc, #8]	; (10001024 <__Xmc1100_reset_cortex_m+0xc>)
    MOV SP,R0
1000101a:	4685      	mov	sp, r0
    
    /* Launch custom pre-program loading startup procedure */
    LDR R0,=hardware_init_hook
1000101c:	4802      	ldr	r0, [pc, #8]	; (10001028 <__Xmc1100_reset_cortex_m+0x10>)
    BLX R0
1000101e:	4780      	blx	r0

    /* Branch to the program loader now */
    B       __Xmc1100_Program_Loader 
10001020:	e012      	b.n	10001048 <__Xmc1100_Program_Loader>
10001022:	0000      	.short	0x0000
__Xmc1100_reset_cortex_m:
    .fnstart

    /* C routines are likely to be called. Setup the stack now */
    /* This is already setup by BootROM,hence this step is optional */ 
    LDR R0,=__Xmc1100_stack
10001024:	20000920 	.word	0x20000920
    MOV SP,R0
    
    /* Launch custom pre-program loading startup procedure */
    LDR R0,=hardware_init_hook
10001028:	100010d1 	.word	0x100010d1

1000102c <__COPY_FLASH2RAM>:
   to C land is given */
   .section .Xmc1100.postreset,"x",%progbits
 __COPY_FLASH2RAM:
   .fnstart:
   /* Is there anything to be copied? */
   CMP R2,#0
1000102c:	2a00      	cmp	r2, #0
   BEQ SKIPCOPY
1000102e:	d00a      	beq.n	10001046 <SKIPCOPY>
   
   /* For bytecount less than 4, at least 1 word must be copied */
   CMP R2,#4
10001030:	2a04      	cmp	r2, #4
   BCS STARTCOPY
10001032:	d200      	bcs.n	10001036 <STARTCOPY>
   
   /* Byte count < 4 ; so bump it up */
   MOVS R2,#4
10001034:	2204      	movs	r2, #4

10001036 <STARTCOPY>:
STARTCOPY:
   /* 
      R2 contains byte count. Change it to word count. It is ensured in the 
      linker script that the length is always word aligned.
   */
   LSRS R2,R2,#2 /* Divide by 4 to obtain word count */
10001036:	0892      	lsrs	r2, r2, #2

10001038 <COPYLOOP>:

   /* The proverbial loop from the schooldays */
COPYLOOP:
   LDR R3,[R0]
10001038:	6803      	ldr	r3, [r0, #0]
   STR R3,[R1]
1000103a:	600b      	str	r3, [r1, #0]
   SUBS R2,#1
1000103c:	3a01      	subs	r2, #1
   BEQ SKIPCOPY
1000103e:	d002      	beq.n	10001046 <SKIPCOPY>
   ADDS R0,#4
10001040:	3004      	adds	r0, #4
   ADDS R1,#4
10001042:	3104      	adds	r1, #4
   B COPYLOOP
10001044:	e7f8      	b.n	10001038 <COPYLOOP>

10001046 <SKIPCOPY>:
    
SKIPCOPY:
   BX LR
10001046:	4770      	bx	lr

10001048 <__Xmc1100_Program_Loader>:
   .fnstart
   /* Memories are accessible now*/
   
   /* DATA COPY */
   /* R0 = Start address, R1 = Destination address, R2 = Size */
   LDR R0, =DataLoadAddr
10001048:	4811      	ldr	r0, [pc, #68]	; (10001090 <SKIPCLEAR+0x14>)
   LDR R1, =__Xmc1100_sData
1000104a:	4912      	ldr	r1, [pc, #72]	; (10001094 <SKIPCLEAR+0x18>)
   LDR R2, =__Xmc1100_Data_Size
1000104c:	4a12      	ldr	r2, [pc, #72]	; (10001098 <SKIPCLEAR+0x1c>)
   BL __COPY_FLASH2RAM
1000104e:	f7ff ffed 	bl	1000102c <__COPY_FLASH2RAM>

   /* RAM_CODE COPY */
   /* R0 = Start address, R1 = Destination address, R2 = Size */
   LDR R0, =__ram_code_load
10001052:	4812      	ldr	r0, [pc, #72]	; (1000109c <SKIPCLEAR+0x20>)
   LDR R1, =__ram_code_start
10001054:	4912      	ldr	r1, [pc, #72]	; (100010a0 <SKIPCLEAR+0x24>)
   LDR R2, =__ram_code_size
10001056:	4a13      	ldr	r2, [pc, #76]	; (100010a4 <SKIPCLEAR+0x28>)
   BL __COPY_FLASH2RAM
10001058:	f7ff ffe8 	bl	1000102c <__COPY_FLASH2RAM>

   /* VENEER COPY */
   /* R0 = Start address, R1 = Destination address, R2 = Size */
   LDR R0, =VeneerLoadAddr
1000105c:	4812      	ldr	r0, [pc, #72]	; (100010a8 <SKIPCLEAR+0x2c>)
   LDR R1, =VeneerStart
1000105e:	4913      	ldr	r1, [pc, #76]	; (100010ac <SKIPCLEAR+0x30>)
   LDR R2, =VeneerSize
10001060:	4a13      	ldr	r2, [pc, #76]	; (100010b0 <SKIPCLEAR+0x34>)
   BL __COPY_FLASH2RAM
10001062:	f7ff ffe3 	bl	1000102c <__COPY_FLASH2RAM>

   /* BSS CLEAR */
   LDR R0, =__Xmc1100_sBSS     /* Start of BSS */
10001066:	4813      	ldr	r0, [pc, #76]	; (100010b4 <SKIPCLEAR+0x38>)
   LDR R1, =__Xmc1100_BSS_Size /* BSS size in bytes */
10001068:	4913      	ldr	r1, [pc, #76]	; (100010b8 <SKIPCLEAR+0x3c>)

   /* Find out if there are items assigned to BSS */   
   CMP R1,#0 
1000106a:	2900      	cmp	r1, #0
   BEQ SKIPCLEAR
1000106c:	d006      	beq.n	1000107c <SKIPCLEAR>

1000106e <STARTCLEAR>:

STARTCLEAR:
   LSRS R1,R1,#2            /* BSS size in words */
1000106e:	0889      	lsrs	r1, r1, #2
   
   MOVS R2,#0
10001070:	2200      	movs	r2, #0

10001072 <CLEARLOOP>:
CLEARLOOP:
   STR R2,[R0]
10001072:	6002      	str	r2, [r0, #0]
   SUBS R1,#1
10001074:	3901      	subs	r1, #1
   BEQ SKIPCLEAR
10001076:	d001      	beq.n	1000107c <SKIPCLEAR>
   ADDS R0,#4
10001078:	3004      	adds	r0, #4
   B CLEARLOOP
1000107a:	e7fa      	b.n	10001072 <CLEARLOOP>

1000107c <SKIPCLEAR>:
    
SKIPCLEAR:

   /* Reset stack pointer before zipping off to user application, Optional */
   LDR R0,=__Xmc1100_stack 
1000107c:	480f      	ldr	r0, [pc, #60]	; (100010bc <SKIPCLEAR+0x40>)
   MOV SP,R0
1000107e:	4685      	mov	sp, r0

   /* Perform System Initialization */   
   LDR R0,=SystemInit
10001080:	480f      	ldr	r0, [pc, #60]	; (100010c0 <SKIPCLEAR+0x44>)
   BLX R0
10001082:	4780      	blx	r0

   /* Launch custom post-program loading startup procedure */
   LDR R0,=software_init_hook
10001084:	480f      	ldr	r0, [pc, #60]	; (100010c4 <SKIPCLEAR+0x48>)
   BLX R0
10001086:	4780      	blx	r0

   MOVS R0,#0
10001088:	2000      	movs	r0, #0
   MOVS R1,#0
1000108a:	2100      	movs	r1, #0
   LDR R2, =main
1000108c:	4a0e      	ldr	r2, [pc, #56]	; (100010c8 <SKIPCLEAR+0x4c>)
   MOV PC,R2
1000108e:	4697      	mov	pc, r2
   .fnstart
   /* Memories are accessible now*/
   
   /* DATA COPY */
   /* R0 = Start address, R1 = Destination address, R2 = Size */
   LDR R0, =DataLoadAddr
10001090:	10004010 	.word	0x10004010
   LDR R1, =__Xmc1100_sData
10001094:	20000940 	.word	0x20000940
   LDR R2, =__Xmc1100_Data_Size
10001098:	00000008 	.word	0x00000008
   BL __COPY_FLASH2RAM

   /* RAM_CODE COPY */
   /* R0 = Start address, R1 = Destination address, R2 = Size */
   LDR R0, =__ram_code_load
1000109c:	10004018 	.word	0x10004018
   LDR R1, =__ram_code_start
100010a0:	20000948 	.word	0x20000948
   LDR R2, =__ram_code_size
100010a4:	00000000 	.word	0x00000000
   BL __COPY_FLASH2RAM

   /* VENEER COPY */
   /* R0 = Start address, R1 = Destination address, R2 = Size */
   LDR R0, =VeneerLoadAddr
100010a8:	10003f00 	.word	0x10003f00
   LDR R1, =VeneerStart
100010ac:	2000000c 	.word	0x2000000c
   LDR R2, =VeneerSize
100010b0:	00000110 	.word	0x00000110
   BL __COPY_FLASH2RAM

   /* BSS CLEAR */
   LDR R0, =__Xmc1100_sBSS     /* Start of BSS */
100010b4:	20000920 	.word	0x20000920
   LDR R1, =__Xmc1100_BSS_Size /* BSS size in bytes */
100010b8:	0000001c 	.word	0x0000001c
   B CLEARLOOP
    
SKIPCLEAR:

   /* Reset stack pointer before zipping off to user application, Optional */
   LDR R0,=__Xmc1100_stack 
100010bc:	20000920 	.word	0x20000920
   MOV SP,R0

   /* Perform System Initialization */   
   LDR R0,=SystemInit
100010c0:	10001105 	.word	0x10001105
   BLX R0

   /* Launch custom post-program loading startup procedure */
   LDR R0,=software_init_hook
100010c4:	100010cd 	.word	0x100010cd
   BLX R0

   MOVS R0,#0
   MOVS R1,#0
   LDR R2, =main
100010c8:	10001205 	.word	0x10001205

100010cc <software_init_hook>:
   has not been started.
 */
     .weak software_init_hook
     .type software_init_hook, %function
software_init_hook:
     NOP
100010cc:	46c0      	nop			; (mov r8, r8)
     BX LR
100010ce:	4770      	bx	lr

100010d0 <hardware_init_hook>:
     .size software_init_hook, . - software_init_hook

     .weak hardware_init_hook
     .type hardware_init_hook, %function
hardware_init_hook:
     NOP
100010d0:	46c0      	nop			; (mov r8, r8)
     BX LR
100010d2:	4770      	bx	lr

100010d4 <NMI_Handler>:
/* Default exception Handlers - Users may override this default functionality by
   defining handlers of the same name in their C code */
    .thumb 
    .text

    Insert_ExceptionHandler NMI_Handler
100010d4:	e7fe      	b.n	100010d4 <NMI_Handler>

100010d6 <HardFault_Handler>:
/* ======================================================================== */
    Insert_ExceptionHandler HardFault_Handler
100010d6:	e7fe      	b.n	100010d6 <HardFault_Handler>

100010d8 <SVC_Handler>:
/* ======================================================================== */
    Insert_ExceptionHandler SVC_Handler
100010d8:	e7fe      	b.n	100010d8 <SVC_Handler>

100010da <PendSV_Handler>:
/* ======================================================================== */
    Insert_ExceptionHandler PendSV_Handler
100010da:	e7fe      	b.n	100010da <PendSV_Handler>

100010dc <SysTick_Handler>:
/* ======================================================================== */
    Insert_ExceptionHandler SysTick_Handler
100010dc:	e7fe      	b.n	100010dc <SysTick_Handler>

100010de <SCU_0_IRQHandler>:
/* ============= END OF EXCEPTION HANDLER DEFINITION ======================== */

/* ============= START OF INTERRUPT HANDLER DEFINITION ====================== */

/* IRQ Handlers */
    Insert_ExceptionHandler SCU_0_IRQHandler
100010de:	e7fe      	b.n	100010de <SCU_0_IRQHandler>

100010e0 <SCU_1_IRQHandler>:
/* ======================================================================== */
    Insert_ExceptionHandler SCU_1_IRQHandler
100010e0:	e7fe      	b.n	100010e0 <SCU_1_IRQHandler>

100010e2 <SCU_2_IRQHandler>:
/* ======================================================================== */
    Insert_ExceptionHandler SCU_2_IRQHandler
100010e2:	e7fe      	b.n	100010e2 <SCU_2_IRQHandler>

100010e4 <ERU0_0_IRQHandler>:
/* ======================================================================== */
    Insert_ExceptionHandler ERU0_0_IRQHandler
100010e4:	e7fe      	b.n	100010e4 <ERU0_0_IRQHandler>

100010e6 <ERU0_1_IRQHandler>:
/* ======================================================================== */
    Insert_ExceptionHandler ERU0_1_IRQHandler
100010e6:	e7fe      	b.n	100010e6 <ERU0_1_IRQHandler>

100010e8 <ERU0_2_IRQHandler>:
/* ======================================================================== */
    Insert_ExceptionHandler ERU0_2_IRQHandler
100010e8:	e7fe      	b.n	100010e8 <ERU0_2_IRQHandler>

100010ea <ERU0_3_IRQHandler>:
/* ======================================================================== */
    Insert_ExceptionHandler ERU0_3_IRQHandler
100010ea:	e7fe      	b.n	100010ea <ERU0_3_IRQHandler>

100010ec <VADC0_C0_0_IRQHandler>:
/* ======================================================================== */
    Insert_ExceptionHandler VADC0_C0_0_IRQHandler
100010ec:	e7fe      	b.n	100010ec <VADC0_C0_0_IRQHandler>

100010ee <VADC0_C0_1_IRQHandler>:
/* ======================================================================== */
    Insert_ExceptionHandler VADC0_C0_1_IRQHandler
100010ee:	e7fe      	b.n	100010ee <VADC0_C0_1_IRQHandler>

100010f0 <CCU40_0_IRQHandler>:
/* ======================================================================== */
    Insert_ExceptionHandler CCU40_0_IRQHandler
100010f0:	e7fe      	b.n	100010f0 <CCU40_0_IRQHandler>

100010f2 <CCU40_1_IRQHandler>:
/* ======================================================================== */
    Insert_ExceptionHandler CCU40_1_IRQHandler
100010f2:	e7fe      	b.n	100010f2 <CCU40_1_IRQHandler>

100010f4 <CCU40_2_IRQHandler>:
/* ======================================================================== */
    Insert_ExceptionHandler CCU40_2_IRQHandler
100010f4:	e7fe      	b.n	100010f4 <CCU40_2_IRQHandler>
/* ======================================================================== */
    Insert_ExceptionHandler CCU40_3_IRQHandler
100010f6:	e7fe      	b.n	100010f6 <CCU40_2_IRQHandler+0x2>

100010f8 <USIC0_0_IRQHandler>:
/* ======================================================================== */
    Insert_ExceptionHandler USIC0_0_IRQHandler
100010f8:	e7fe      	b.n	100010f8 <USIC0_0_IRQHandler>

100010fa <USIC0_1_IRQHandler>:
/* ======================================================================== */
    Insert_ExceptionHandler USIC0_1_IRQHandler
100010fa:	e7fe      	b.n	100010fa <USIC0_1_IRQHandler>

100010fc <USIC0_2_IRQHandler>:
/* ======================================================================== */
    Insert_ExceptionHandler USIC0_2_IRQHandler
100010fc:	e7fe      	b.n	100010fc <USIC0_2_IRQHandler>

100010fe <USIC0_3_IRQHandler>:
/* ======================================================================== */
    Insert_ExceptionHandler USIC0_3_IRQHandler
100010fe:	e7fe      	b.n	100010fe <USIC0_3_IRQHandler>

10001100 <USIC0_4_IRQHandler>:
/* ======================================================================== */
    Insert_ExceptionHandler USIC0_4_IRQHandler
10001100:	e7fe      	b.n	10001100 <USIC0_4_IRQHandler>

10001102 <USIC0_5_IRQHandler>:
/* ======================================================================== */
    Insert_ExceptionHandler USIC0_5_IRQHandler
10001102:	e7fe      	b.n	10001102 <USIC0_5_IRQHandler>

10001104 <SystemInit>:
  * @brief  Setup the microcontroller system.
  * @param  None
  * @retval None
  */
void SystemInit(void)
{    
10001104:	b580      	push	{r7, lr}
10001106:	af00      	add	r7, sp, #0
   * while((SCU_CLK->CLKCR & SCU_CLK_CLKCR_VDDC2LOW_Msk));
   * SCU_GENERAL->PASSWD = 0x000000C3UL; // enable bit protection
   * SystemCoreClockUpdate();
   *
   */
  SystemCoreClockUpdate();
10001108:	f000 f802 	bl	10001110 <SystemCoreClockUpdate>
}
1000110c:	46bd      	mov	sp, r7
1000110e:	bd80      	pop	{r7, pc}

10001110 <SystemCoreClockUpdate>:
  * @note   -  
  * @param  None
  * @retval None
  */
void SystemCoreClockUpdate(void)
{
10001110:	b580      	push	{r7, lr}
10001112:	b082      	sub	sp, #8
10001114:	af00      	add	r7, sp, #0
  uint32_t IDIV, FDIV;

  IDIV = ((SCU_CLK->CLKCR) & SCU_CLK_CLKCR_IDIV_Msk) >> SCU_CLK_CLKCR_IDIV_Pos;
10001116:	4b11      	ldr	r3, [pc, #68]	; (1000115c <SystemCoreClockUpdate+0x4c>)
10001118:	681a      	ldr	r2, [r3, #0]
1000111a:	23ff      	movs	r3, #255	; 0xff
1000111c:	021b      	lsls	r3, r3, #8
1000111e:	4013      	ands	r3, r2
10001120:	0a1b      	lsrs	r3, r3, #8
10001122:	607b      	str	r3, [r7, #4]
  FDIV = ((SCU_CLK->CLKCR) & SCU_CLK_CLKCR_FDIV_Msk) >> SCU_CLK_CLKCR_FDIV_Pos;
10001124:	4b0d      	ldr	r3, [pc, #52]	; (1000115c <SystemCoreClockUpdate+0x4c>)
10001126:	681a      	ldr	r2, [r3, #0]
10001128:	23ff      	movs	r3, #255	; 0xff
1000112a:	4013      	ands	r3, r2
1000112c:	603b      	str	r3, [r7, #0]
  
  if(IDIV)
1000112e:	687b      	ldr	r3, [r7, #4]
10001130:	2b00      	cmp	r3, #0
10001132:	d00c      	beq.n	1000114e <SystemCoreClockUpdate+0x3e>
  {
    /* Fractional divider is enabled and used */
    SystemCoreClock = ((MCLK_MHZ << 7) / ((IDIV << 8) + FDIV)) << 1;
10001134:	687b      	ldr	r3, [r7, #4]
10001136:	021a      	lsls	r2, r3, #8
10001138:	683b      	ldr	r3, [r7, #0]
1000113a:	18d3      	adds	r3, r2, r3
1000113c:	4808      	ldr	r0, [pc, #32]	; (10001160 <SystemCoreClockUpdate+0x50>)
1000113e:	1c19      	adds	r1, r3, #0
10001140:	f001 ffda 	bl	100030f8 <__aeabi_uidiv>
10001144:	1c03      	adds	r3, r0, #0
10001146:	005a      	lsls	r2, r3, #1
10001148:	4b06      	ldr	r3, [pc, #24]	; (10001164 <SystemCoreClockUpdate+0x54>)
1000114a:	601a      	str	r2, [r3, #0]
1000114c:	e002      	b.n	10001154 <SystemCoreClockUpdate+0x44>
  }
  else
  {
    /* Fractional divider bypassed. Simply divide DCO_DCLK by 2 */
    SystemCoreClock = MCLK_MHZ;
1000114e:	4b05      	ldr	r3, [pc, #20]	; (10001164 <SystemCoreClockUpdate+0x54>)
10001150:	4a05      	ldr	r2, [pc, #20]	; (10001168 <SystemCoreClockUpdate+0x58>)
10001152:	601a      	str	r2, [r3, #0]
  }
}
10001154:	46bd      	mov	sp, r7
10001156:	b002      	add	sp, #8
10001158:	bd80      	pop	{r7, pc}
1000115a:	46c0      	nop			; (mov r8, r8)
1000115c:	40010300 	.word	0x40010300
10001160:	f4240000 	.word	0xf4240000
10001164:	20000938 	.word	0x20000938
10001168:	01e84800 	.word	0x01e84800

1000116c <P0_5_set_large_hysteresis>:

__STATIC_INLINE void P0_5_set_standard_hysteresis(){
    PORT0->PHCR0 &= ~0x00400000UL;
}

__STATIC_INLINE void P0_5_set_large_hysteresis(){
1000116c:	b580      	push	{r7, lr}
1000116e:	af00      	add	r7, sp, #0
    PORT0->PHCR0 |= 0x00400000UL;
10001170:	4b04      	ldr	r3, [pc, #16]	; (10001184 <P0_5_set_large_hysteresis+0x18>)
10001172:	4a04      	ldr	r2, [pc, #16]	; (10001184 <P0_5_set_large_hysteresis+0x18>)
10001174:	6c12      	ldr	r2, [r2, #64]	; 0x40
10001176:	2180      	movs	r1, #128	; 0x80
10001178:	03c9      	lsls	r1, r1, #15
1000117a:	430a      	orrs	r2, r1
1000117c:	641a      	str	r2, [r3, #64]	; 0x40
}
1000117e:	46bd      	mov	sp, r7
10001180:	bd80      	pop	{r7, pc}
10001182:	46c0      	nop			; (mov r8, r8)
10001184:	40040000 	.word	0x40040000

10001188 <P0_5_read>:

__STATIC_INLINE void P0_5_toggle(void){
    PORT0->OMR = 0x00200020UL;
}

__STATIC_INLINE uint32_t P0_5_read(void){
10001188:	b580      	push	{r7, lr}
1000118a:	af00      	add	r7, sp, #0
    return(PORT0->IN & 0x00000020UL);
1000118c:	4b03      	ldr	r3, [pc, #12]	; (1000119c <P0_5_read+0x14>)
1000118e:	6a5a      	ldr	r2, [r3, #36]	; 0x24
10001190:	2320      	movs	r3, #32
10001192:	4013      	ands	r3, r2
}
10001194:	1c18      	adds	r0, r3, #0
10001196:	46bd      	mov	sp, r7
10001198:	bd80      	pop	{r7, pc}
1000119a:	46c0      	nop			; (mov r8, r8)
1000119c:	40040000 	.word	0x40040000

100011a0 <P0_6_set_mode>:

__STATIC_INLINE void P0_5_disable_pps(void){
    PORT0->PPS &= ~0x00000020UL;
}

__STATIC_INLINE void P0_6_set_mode(uint8_t mode){
100011a0:	b580      	push	{r7, lr}
100011a2:	b082      	sub	sp, #8
100011a4:	af00      	add	r7, sp, #0
100011a6:	1c02      	adds	r2, r0, #0
100011a8:	1dfb      	adds	r3, r7, #7
100011aa:	701a      	strb	r2, [r3, #0]
    PORT0->IOCR4 &= ~0x00f80000UL;
100011ac:	4b08      	ldr	r3, [pc, #32]	; (100011d0 <P0_6_set_mode+0x30>)
100011ae:	4a08      	ldr	r2, [pc, #32]	; (100011d0 <P0_6_set_mode+0x30>)
100011b0:	6951      	ldr	r1, [r2, #20]
100011b2:	4a08      	ldr	r2, [pc, #32]	; (100011d4 <P0_6_set_mode+0x34>)
100011b4:	400a      	ands	r2, r1
100011b6:	615a      	str	r2, [r3, #20]
    PORT0->IOCR4 |= mode << 16;
100011b8:	4b05      	ldr	r3, [pc, #20]	; (100011d0 <P0_6_set_mode+0x30>)
100011ba:	4a05      	ldr	r2, [pc, #20]	; (100011d0 <P0_6_set_mode+0x30>)
100011bc:	6951      	ldr	r1, [r2, #20]
100011be:	1dfa      	adds	r2, r7, #7
100011c0:	7812      	ldrb	r2, [r2, #0]
100011c2:	0412      	lsls	r2, r2, #16
100011c4:	430a      	orrs	r2, r1
100011c6:	615a      	str	r2, [r3, #20]
}
100011c8:	46bd      	mov	sp, r7
100011ca:	b002      	add	sp, #8
100011cc:	bd80      	pop	{r7, pc}
100011ce:	46c0      	nop			; (mov r8, r8)
100011d0:	40040000 	.word	0x40040000
100011d4:	ff07ffff 	.word	0xff07ffff

100011d8 <P0_6_set>:

__STATIC_INLINE void P0_6_set_large_hysteresis(){
    PORT0->PHCR0 |= 0x04000000UL;
}

__STATIC_INLINE void P0_6_set(void){
100011d8:	b580      	push	{r7, lr}
100011da:	af00      	add	r7, sp, #0
    PORT0->OMR = 0x00000040UL;
100011dc:	4b02      	ldr	r3, [pc, #8]	; (100011e8 <P0_6_set+0x10>)
100011de:	2240      	movs	r2, #64	; 0x40
100011e0:	605a      	str	r2, [r3, #4]
}
100011e2:	46bd      	mov	sp, r7
100011e4:	bd80      	pop	{r7, pc}
100011e6:	46c0      	nop			; (mov r8, r8)
100011e8:	40040000 	.word	0x40040000

100011ec <P0_6_toggle>:

__STATIC_INLINE void P0_6_reset(void){
    PORT0->OMR = 0x00400000UL;
}

__STATIC_INLINE void P0_6_toggle(void){
100011ec:	b580      	push	{r7, lr}
100011ee:	af00      	add	r7, sp, #0
    PORT0->OMR = 0x00400040UL;
100011f0:	4b02      	ldr	r3, [pc, #8]	; (100011fc <P0_6_toggle+0x10>)
100011f2:	4a03      	ldr	r2, [pc, #12]	; (10001200 <P0_6_toggle+0x14>)
100011f4:	605a      	str	r2, [r3, #4]
}
100011f6:	46bd      	mov	sp, r7
100011f8:	bd80      	pop	{r7, pc}
100011fa:	46c0      	nop			; (mov r8, r8)
100011fc:	40040000 	.word	0x40040000
10001200:	00400040 	.word	0x00400040

10001204 <main>:
	//P0_5_set_mode(INPUT);



int main(void)
{
10001204:	b580      	push	{r7, lr}
10001206:	b08a      	sub	sp, #40	; 0x28
10001208:	af00      	add	r7, sp, #0
	status_t status;		// Declaration of return variable for DAVE3 APIs


	DAVE_Init();			// Initialization of DAVE Apps
1000120a:	f001 fdcf 	bl	10002dac <DAVE_Init>

	
	/* Starts the PWMSP001 App (LED) */
	status = PWMSP001_Start((PWMSP001_HandleType*)&PWMSP001_Handle0);
1000120e:	4b46      	ldr	r3, [pc, #280]	; (10001328 <main+0x124>)
10001210:	1c18      	adds	r0, r3, #0
10001212:	f000 fbf9 	bl	10001a08 <PWMSP001_Start>
10001216:	1c03      	adds	r3, r0, #0
10001218:	607b      	str	r3, [r7, #4]
	if(status != DAVEApp_SUCCESS)
1000121a:	687b      	ldr	r3, [r7, #4]
1000121c:	2b00      	cmp	r3, #0
1000121e:	d003      	beq.n	10001228 <main+0x24>
	{
		PWMSP001_Stop((PWMSP001_HandleType*)&PWMSP001_Handle0);
10001220:	4b41      	ldr	r3, [pc, #260]	; (10001328 <main+0x124>)
10001222:	1c18      	adds	r0, r3, #0
10001224:	f000 fcac 	bl	10001b80 <PWMSP001_Stop>
	}

	PIN_LOW_INIT();
10001228:	20c0      	movs	r0, #192	; 0xc0
1000122a:	f7ff ffb9 	bl	100011a0 <P0_6_set_mode>
1000122e:	f7ff ffd3 	bl	100011d8 <P0_6_set>
	PIN_IS_INIT();
10001232:	f7ff ff9b 	bl	1000116c <P0_5_set_large_hysteresis>
10001236:	f7ff ffa7 	bl	10001188 <P0_5_read>



	bool lastPinState = PIN_IS_HIGH();
1000123a:	f7ff ffa5 	bl	10001188 <P0_5_read>
1000123e:	1c02      	adds	r2, r0, #0
10001240:	1c3b      	adds	r3, r7, #0
10001242:	3327      	adds	r3, #39	; 0x27
10001244:	701a      	strb	r2, [r3, #0]
	bool trigger = FALSE;
10001246:	1c3b      	adds	r3, r7, #0
10001248:	3326      	adds	r3, #38	; 0x26
1000124a:	2200      	movs	r2, #0
1000124c:	701a      	strb	r2, [r3, #0]
	int noTriggerCnt=0;
1000124e:	2300      	movs	r3, #0
10001250:	623b      	str	r3, [r7, #32]
	int speed=0;
10001252:	2300      	movs	r3, #0
10001254:	61fb      	str	r3, [r7, #28]
	int speedLow=0;
10001256:	2300      	movs	r3, #0
10001258:	61bb      	str	r3, [r7, #24]
	int speedLowHigh=0;
1000125a:	2300      	movs	r3, #0
1000125c:	617b      	str	r3, [r7, #20]
1000125e:	e000      	b.n	10001262 <main+0x5e>
			}
		}
				
		

	}
10001260:	46c0      	nop			; (mov r8, r8)
	int speedLowHigh=0;


	while(1)
	{
		speed++;
10001262:	69fb      	ldr	r3, [r7, #28]
10001264:	3301      	adds	r3, #1
10001266:	61fb      	str	r3, [r7, #28]
		speedLow++;
10001268:	69bb      	ldr	r3, [r7, #24]
1000126a:	3301      	adds	r3, #1
1000126c:	61bb      	str	r3, [r7, #24]
		
		int cnt_high=0;
1000126e:	2300      	movs	r3, #0
10001270:	613b      	str	r3, [r7, #16]
		int cnt_low=0;
10001272:	2300      	movs	r3, #0
10001274:	60fb      	str	r3, [r7, #12]
		for (int i = 0; i < 0x1FF; i++)
10001276:	2300      	movs	r3, #0
10001278:	60bb      	str	r3, [r7, #8]
1000127a:	e00e      	b.n	1000129a <main+0x96>
		{
			if (PIN_IS_HIGH())
1000127c:	f7ff ff84 	bl	10001188 <P0_5_read>
10001280:	1c03      	adds	r3, r0, #0
10001282:	2b00      	cmp	r3, #0
10001284:	d003      	beq.n	1000128e <main+0x8a>
				cnt_high++;
10001286:	693b      	ldr	r3, [r7, #16]
10001288:	3301      	adds	r3, #1
1000128a:	613b      	str	r3, [r7, #16]
1000128c:	e002      	b.n	10001294 <main+0x90>
			else
				cnt_low++;
1000128e:	68fb      	ldr	r3, [r7, #12]
10001290:	3301      	adds	r3, #1
10001292:	60fb      	str	r3, [r7, #12]
		speed++;
		speedLow++;
		
		int cnt_high=0;
		int cnt_low=0;
		for (int i = 0; i < 0x1FF; i++)
10001294:	68bb      	ldr	r3, [r7, #8]
10001296:	3301      	adds	r3, #1
10001298:	60bb      	str	r3, [r7, #8]
1000129a:	68ba      	ldr	r2, [r7, #8]
1000129c:	23ff      	movs	r3, #255	; 0xff
1000129e:	005b      	lsls	r3, r3, #1
100012a0:	429a      	cmp	r2, r3
100012a2:	ddeb      	ble.n	1000127c <main+0x78>
			else
				cnt_low++;
		}
		
		
		if (cnt_low > 0)
100012a4:	68fb      	ldr	r3, [r7, #12]
100012a6:	2b00      	cmp	r3, #0
100012a8:	dd17      	ble.n	100012da <main+0xd6>
		{
			if (lastPinState)
100012aa:	1c3b      	adds	r3, r7, #0
100012ac:	3327      	adds	r3, #39	; 0x27
100012ae:	781b      	ldrb	r3, [r3, #0]
100012b0:	2b00      	cmp	r3, #0
100012b2:	d00d      	beq.n	100012d0 <main+0xcc>
			{
				trigger = TRUE;
100012b4:	1c3b      	adds	r3, r7, #0
100012b6:	3326      	adds	r3, #38	; 0x26
100012b8:	2201      	movs	r2, #1
100012ba:	701a      	strb	r2, [r3, #0]
				speedLowHigh = speed*16/10/2;
100012bc:	69fb      	ldr	r3, [r7, #28]
100012be:	011b      	lsls	r3, r3, #4
100012c0:	1c18      	adds	r0, r3, #0
100012c2:	2114      	movs	r1, #20
100012c4:	f001 ff66 	bl	10003194 <__aeabi_idiv>
100012c8:	1c03      	adds	r3, r0, #0
100012ca:	617b      	str	r3, [r7, #20]
				speed=0;
100012cc:	2300      	movs	r3, #0
100012ce:	61fb      	str	r3, [r7, #28]
			}
			lastPinState = FALSE;
100012d0:	1c3b      	adds	r3, r7, #0
100012d2:	3327      	adds	r3, #39	; 0x27
100012d4:	2200      	movs	r2, #0
100012d6:	701a      	strb	r2, [r3, #0]
100012d8:	e006      	b.n	100012e8 <main+0xe4>
		}
		else if (cnt_high > 0)
100012da:	693b      	ldr	r3, [r7, #16]
100012dc:	2b00      	cmp	r3, #0
100012de:	dd03      	ble.n	100012e8 <main+0xe4>
		{
			lastPinState = TRUE;
100012e0:	1c3b      	adds	r3, r7, #0
100012e2:	3327      	adds	r3, #39	; 0x27
100012e4:	2201      	movs	r2, #1
100012e6:	701a      	strb	r2, [r3, #0]
		}
		
		if (speedLow >= speedLowHigh)
100012e8:	69ba      	ldr	r2, [r7, #24]
100012ea:	697b      	ldr	r3, [r7, #20]
100012ec:	429a      	cmp	r2, r3
100012ee:	dbb7      	blt.n	10001260 <main+0x5c>
		{
			speedLow = 0;
100012f0:	2300      	movs	r3, #0
100012f2:	61bb      	str	r3, [r7, #24]
			
			if (!trigger)
100012f4:	1c3b      	adds	r3, r7, #0
100012f6:	3326      	adds	r3, #38	; 0x26
100012f8:	781b      	ldrb	r3, [r3, #0]
100012fa:	2b00      	cmp	r3, #0
100012fc:	d103      	bne.n	10001306 <main+0x102>
				noTriggerCnt++;
100012fe:	6a3b      	ldr	r3, [r7, #32]
10001300:	3301      	adds	r3, #1
10001302:	623b      	str	r3, [r7, #32]
10001304:	e001      	b.n	1000130a <main+0x106>
			else
				noTriggerCnt=0;
10001306:	2300      	movs	r3, #0
10001308:	623b      	str	r3, [r7, #32]
			trigger = FALSE;
1000130a:	1c3b      	adds	r3, r7, #0
1000130c:	3326      	adds	r3, #38	; 0x26
1000130e:	2200      	movs	r2, #0
10001310:	701a      	strb	r2, [r3, #0]
			
			if (noTriggerCnt > 1)
10001312:	6a3b      	ldr	r3, [r7, #32]
10001314:	2b01      	cmp	r3, #1
10001316:	dd04      	ble.n	10001322 <main+0x11e>
			{
				noTriggerCnt=1;
10001318:	2301      	movs	r3, #1
1000131a:	623b      	str	r3, [r7, #32]
				PIN_LOW_DEASSERT();
1000131c:	f7ff ff5c 	bl	100011d8 <P0_6_set>
			}
		}
				
		

	}
10001320:	e79e      	b.n	10001260 <main+0x5c>
				noTriggerCnt=1;
				PIN_LOW_DEASSERT();
			}
			else
			{
				PIN_LOW_TOGGLE();
10001322:	f7ff ff63 	bl	100011ec <P0_6_toggle>
			}
		}
				
		

	}
10001326:	e79b      	b.n	10001260 <main+0x5c>
10001328:	10003e28 	.word	0x10003e28

1000132c <CCU40_3_IRQHandler>:

/*
 * PWM_Period_Interrupt handler: executes every period match of PWMSP001/0.
 */
void PWM_Period_Interrupt(void)
{
1000132c:	b580      	push	{r7, lr}
1000132e:	b082      	sub	sp, #8
10001330:	af00      	add	r7, sp, #0
#define PERCHANGE (FFAST*2)
	static uint32_t state = 0;
	status_t status;

	/* state machine to change the different duty cycle */
	switch(state)
10001332:	4b1a      	ldr	r3, [pc, #104]	; (1000139c <CCU40_3_IRQHandler+0x70>)
10001334:	681b      	ldr	r3, [r3, #0]
10001336:	2b00      	cmp	r3, #0
10001338:	d002      	beq.n	10001340 <CCU40_3_IRQHandler+0x14>
1000133a:	2b14      	cmp	r3, #20
1000133c:	d00b      	beq.n	10001356 <CCU40_3_IRQHandler+0x2a>
1000133e:	e015      	b.n	1000136c <CCU40_3_IRQHandler+0x40>
	{
		
		case 0: //status =  PWMSP001_SetCompare(&PWMSP001_Handle0, 0x4AFF); /* Updating of duty cycle to 10% */
		    // Change PWM frequency to 20 Hz and duty cycle of 50%
		    status = PWMSP001_SetPwmFreqAndDutyCycle((PWMSP001_HandleType*)&PWMSP001_Handle0, FFAST, 50);
10001340:	4917      	ldr	r1, [pc, #92]	; (100013a0 <CCU40_3_IRQHandler+0x74>)
10001342:	4a18      	ldr	r2, [pc, #96]	; (100013a4 <CCU40_3_IRQHandler+0x78>)
10001344:	4b18      	ldr	r3, [pc, #96]	; (100013a8 <CCU40_3_IRQHandler+0x7c>)
10001346:	1c08      	adds	r0, r1, #0
10001348:	1c11      	adds	r1, r2, #0
1000134a:	1c1a      	adds	r2, r3, #0
1000134c:	f000 ff18 	bl	10002180 <PWMSP001_SetPwmFreqAndDutyCycle>
10001350:	1c03      	adds	r3, r0, #0
10001352:	607b      	str	r3, [r7, #4]
		    break;
10001354:	e00b      	b.n	1000136e <CCU40_3_IRQHandler+0x42>
		
		case PERCHANGE: //status =  PWMSP001_SetCompare(&PWMSP001_Handle0, 0x0855); /* Updating of duty cycle to 90% */
		    // Change PWM frequency to 10 Hz and duty cycle of 50%
		    status = PWMSP001_SetPwmFreqAndDutyCycle((PWMSP001_HandleType*)&PWMSP001_Handle0, FSLOW, 50);
10001356:	4912      	ldr	r1, [pc, #72]	; (100013a0 <CCU40_3_IRQHandler+0x74>)
10001358:	4a14      	ldr	r2, [pc, #80]	; (100013ac <CCU40_3_IRQHandler+0x80>)
1000135a:	4b13      	ldr	r3, [pc, #76]	; (100013a8 <CCU40_3_IRQHandler+0x7c>)
1000135c:	1c08      	adds	r0, r1, #0
1000135e:	1c11      	adds	r1, r2, #0
10001360:	1c1a      	adds	r2, r3, #0
10001362:	f000 ff0d 	bl	10002180 <PWMSP001_SetPwmFreqAndDutyCycle>
10001366:	1c03      	adds	r3, r0, #0
10001368:	607b      	str	r3, [r7, #4]
		    break;
1000136a:	e000      	b.n	1000136e <CCU40_3_IRQHandler+0x42>

		default:
			break;
1000136c:	46c0      	nop			; (mov r8, r8)
	}

	/* Updation of the state machine */
	state++;
1000136e:	4b0b      	ldr	r3, [pc, #44]	; (1000139c <CCU40_3_IRQHandler+0x70>)
10001370:	681b      	ldr	r3, [r3, #0]
10001372:	1c5a      	adds	r2, r3, #1
10001374:	4b09      	ldr	r3, [pc, #36]	; (1000139c <CCU40_3_IRQHandler+0x70>)
10001376:	601a      	str	r2, [r3, #0]
	if(state>=PERIODE)
10001378:	4b08      	ldr	r3, [pc, #32]	; (1000139c <CCU40_3_IRQHandler+0x70>)
1000137a:	681b      	ldr	r3, [r3, #0]
1000137c:	2b27      	cmp	r3, #39	; 0x27
1000137e:	d902      	bls.n	10001386 <CCU40_3_IRQHandler+0x5a>
	{
		state= 0;
10001380:	4b06      	ldr	r3, [pc, #24]	; (1000139c <CCU40_3_IRQHandler+0x70>)
10001382:	2200      	movs	r2, #0
10001384:	601a      	str	r2, [r3, #0]
	}

	if(status != DAVEApp_SUCCESS)
10001386:	687b      	ldr	r3, [r7, #4]
10001388:	2b00      	cmp	r3, #0
1000138a:	d003      	beq.n	10001394 <CCU40_3_IRQHandler+0x68>
	{
		PWMSP001_Stop((PWMSP001_HandleType*)&PWMSP001_Handle0);
1000138c:	4b04      	ldr	r3, [pc, #16]	; (100013a0 <CCU40_3_IRQHandler+0x74>)
1000138e:	1c18      	adds	r0, r3, #0
10001390:	f000 fbf6 	bl	10001b80 <PWMSP001_Stop>
	}
}
10001394:	46bd      	mov	sp, r7
10001396:	b002      	add	sp, #8
10001398:	bd80      	pop	{r7, pc}
1000139a:	46c0      	nop			; (mov r8, r8)
1000139c:	20000920 	.word	0x20000920
100013a0:	10003e28 	.word	0x10003e28
100013a4:	41200000 	.word	0x41200000
100013a8:	42480000 	.word	0x42480000
100013ac:	40a00000 	.word	0x40a00000

100013b0 <_open>:
/* ========================================================================= */
/*
 * File open
 */
__attribute__((weak)) int _open(const char *name, int flags, int mode)
{
100013b0:	b580      	push	{r7, lr}
100013b2:	b084      	sub	sp, #16
100013b4:	af00      	add	r7, sp, #0
100013b6:	60f8      	str	r0, [r7, #12]
100013b8:	60b9      	str	r1, [r7, #8]
100013ba:	607a      	str	r2, [r7, #4]
 flags = flags;
 mode = mode;
 return -1;
100013bc:	2301      	movs	r3, #1
100013be:	425b      	negs	r3, r3
}
100013c0:	1c18      	adds	r0, r3, #0
100013c2:	46bd      	mov	sp, r7
100013c4:	b004      	add	sp, #16
100013c6:	bd80      	pop	{r7, pc}

100013c8 <_lseek>:

/*
 * File position seek
 */
__attribute__((weak)) int _lseek(int file, int offset, int whence)
{
100013c8:	b580      	push	{r7, lr}
100013ca:	b084      	sub	sp, #16
100013cc:	af00      	add	r7, sp, #0
100013ce:	60f8      	str	r0, [r7, #12]
100013d0:	60b9      	str	r1, [r7, #8]
100013d2:	607a      	str	r2, [r7, #4]
 file = file;
 offset = offset;
 whence = whence;
 return -1;
100013d4:	2301      	movs	r3, #1
100013d6:	425b      	negs	r3, r3
}
100013d8:	1c18      	adds	r0, r3, #0
100013da:	46bd      	mov	sp, r7
100013dc:	b004      	add	sp, #16
100013de:	bd80      	pop	{r7, pc}

100013e0 <_read>:

/*
 * File read
 */
__attribute__((weak)) int _read(int file, char *ptr, int len)
{
100013e0:	b580      	push	{r7, lr}
100013e2:	b084      	sub	sp, #16
100013e4:	af00      	add	r7, sp, #0
100013e6:	60f8      	str	r0, [r7, #12]
100013e8:	60b9      	str	r1, [r7, #8]
100013ea:	607a      	str	r2, [r7, #4]
 file = file;
 len  = len;
 return 0;
100013ec:	2300      	movs	r3, #0
}
100013ee:	1c18      	adds	r0, r3, #0
100013f0:	46bd      	mov	sp, r7
100013f2:	b004      	add	sp, #16
100013f4:	bd80      	pop	{r7, pc}
100013f6:	46c0      	nop			; (mov r8, r8)

100013f8 <_write>:

/*
 * File write
 */
__attribute__((weak)) int _write(int file, char *buf, int nbytes)
{
100013f8:	b580      	push	{r7, lr}
100013fa:	b084      	sub	sp, #16
100013fc:	af00      	add	r7, sp, #0
100013fe:	60f8      	str	r0, [r7, #12]
10001400:	60b9      	str	r1, [r7, #8]
10001402:	607a      	str	r2, [r7, #4]
 return -1;
10001404:	2301      	movs	r3, #1
10001406:	425b      	negs	r3, r3
}
10001408:	1c18      	adds	r0, r3, #0
1000140a:	46bd      	mov	sp, r7
1000140c:	b004      	add	sp, #16
1000140e:	bd80      	pop	{r7, pc}

10001410 <_close>:

/*
 * File close
 */
__attribute__((weak)) int _close(void)
{
10001410:	b580      	push	{r7, lr}
10001412:	af00      	add	r7, sp, #0
 return -1;
10001414:	2301      	movs	r3, #1
10001416:	425b      	negs	r3, r3
}
10001418:	1c18      	adds	r0, r3, #0
1000141a:	46bd      	mov	sp, r7
1000141c:	bd80      	pop	{r7, pc}
1000141e:	46c0      	nop			; (mov r8, r8)

10001420 <_fstat>:

/*
 * File status
 */
__attribute__((weak)) int _fstat(int file, struct stat *st)
{
10001420:	b580      	push	{r7, lr}
10001422:	b082      	sub	sp, #8
10001424:	af00      	add	r7, sp, #0
10001426:	6078      	str	r0, [r7, #4]
10001428:	6039      	str	r1, [r7, #0]
 file = file;
 if(st)
1000142a:	683b      	ldr	r3, [r7, #0]
1000142c:	2b00      	cmp	r3, #0
1000142e:	d002      	beq.n	10001436 <_fstat+0x16>
  return -1;
10001430:	2301      	movs	r3, #1
10001432:	425b      	negs	r3, r3
10001434:	e001      	b.n	1000143a <_fstat+0x1a>
 else
  return -2;
10001436:	2302      	movs	r3, #2
10001438:	425b      	negs	r3, r3
}
1000143a:	1c18      	adds	r0, r3, #0
1000143c:	46bd      	mov	sp, r7
1000143e:	b002      	add	sp, #8
10001440:	bd80      	pop	{r7, pc}
10001442:	46c0      	nop			; (mov r8, r8)

10001444 <_link>:
/*
 * File linking
 */
__attribute__((weak)) int _link (char *old, char *new)
{
10001444:	b580      	push	{r7, lr}
10001446:	b082      	sub	sp, #8
10001448:	af00      	add	r7, sp, #0
1000144a:	6078      	str	r0, [r7, #4]
1000144c:	6039      	str	r1, [r7, #0]
 if (old == new)
1000144e:	687a      	ldr	r2, [r7, #4]
10001450:	683b      	ldr	r3, [r7, #0]
10001452:	429a      	cmp	r2, r3
10001454:	d102      	bne.n	1000145c <_link+0x18>
  return -1;
10001456:	2301      	movs	r3, #1
10001458:	425b      	negs	r3, r3
1000145a:	e001      	b.n	10001460 <_link+0x1c>
 else
  return -2;
1000145c:	2302      	movs	r3, #2
1000145e:	425b      	negs	r3, r3
}
10001460:	1c18      	adds	r0, r3, #0
10001462:	46bd      	mov	sp, r7
10001464:	b002      	add	sp, #8
10001466:	bd80      	pop	{r7, pc}

10001468 <_unlink>:

/*
 * Unlinking directory entry
 */
__attribute__((weak)) int _unlink(char *name)
{
10001468:	b580      	push	{r7, lr}
1000146a:	b082      	sub	sp, #8
1000146c:	af00      	add	r7, sp, #0
1000146e:	6078      	str	r0, [r7, #4]
 return -1;
10001470:	2301      	movs	r3, #1
10001472:	425b      	negs	r3, r3
}
10001474:	1c18      	adds	r0, r3, #0
10001476:	46bd      	mov	sp, r7
10001478:	b002      	add	sp, #8
1000147a:	bd80      	pop	{r7, pc}

1000147c <_sbrk>:
/* ========================================================================= */
/*
 * Heap break (position)
 */
__attribute__((weak)) void *_sbrk(int RequestedSize)
{
1000147c:	b580      	push	{r7, lr}
1000147e:	b086      	sub	sp, #24
10001480:	af00      	add	r7, sp, #0
10001482:	6078      	str	r0, [r7, #4]
 unsigned int  HeapSize;
 static unsigned char *HeapBound;
 static unsigned char * heap= (unsigned char *)NULL;


 HeapSize   = (unsigned int)(&Heap_Bank1_Size);
10001484:	4b14      	ldr	r3, [pc, #80]	; (100014d8 <_sbrk+0x5c>)
10001486:	617b      	str	r3, [r7, #20]

 /*
  * If this is the first time malloc() was invoked, we start with the
  * begining of the heap.
  */
 if(heap == (unsigned char *)NULL)
10001488:	4b14      	ldr	r3, [pc, #80]	; (100014dc <_sbrk+0x60>)
1000148a:	681b      	ldr	r3, [r3, #0]
1000148c:	2b00      	cmp	r3, #0
1000148e:	d108      	bne.n	100014a2 <_sbrk+0x26>
  {
   heap = (unsigned char *)&Heap_Bank1_Start;
10001490:	4b12      	ldr	r3, [pc, #72]	; (100014dc <_sbrk+0x60>)
10001492:	4a13      	ldr	r2, [pc, #76]	; (100014e0 <_sbrk+0x64>)
10001494:	601a      	str	r2, [r3, #0]
   HeapBound  = (unsigned char *) (heap + HeapSize);
10001496:	4b11      	ldr	r3, [pc, #68]	; (100014dc <_sbrk+0x60>)
10001498:	681a      	ldr	r2, [r3, #0]
1000149a:	697b      	ldr	r3, [r7, #20]
1000149c:	18d2      	adds	r2, r2, r3
1000149e:	4b11      	ldr	r3, [pc, #68]	; (100014e4 <_sbrk+0x68>)
100014a0:	601a      	str	r2, [r3, #0]
  }

 /* Super duper algo to find out if we have memory for the latest request */
 /* Given conditions are: */
 /* 1. Latest break */
 CurrBreak = heap;
100014a2:	4b0e      	ldr	r3, [pc, #56]	; (100014dc <_sbrk+0x60>)
100014a4:	681b      	ldr	r3, [r3, #0]
100014a6:	613b      	str	r3, [r7, #16]

 /* And 2. Potential break based on requested size */
 NextBreak = (unsigned char *)( (((unsigned int)(heap)) + RequestedSize + 7)
100014a8:	4b0c      	ldr	r3, [pc, #48]	; (100014dc <_sbrk+0x60>)
100014aa:	681b      	ldr	r3, [r3, #0]
100014ac:	1c1a      	adds	r2, r3, #0
100014ae:	687b      	ldr	r3, [r7, #4]
100014b0:	18d3      	adds	r3, r2, r3
100014b2:	3307      	adds	r3, #7
                                          & 0xFFFFFFF8);
100014b4:	2207      	movs	r2, #7
100014b6:	4393      	bics	r3, r2
 /* Given conditions are: */
 /* 1. Latest break */
 CurrBreak = heap;

 /* And 2. Potential break based on requested size */
 NextBreak = (unsigned char *)( (((unsigned int)(heap)) + RequestedSize + 7)
100014b8:	60fb      	str	r3, [r7, #12]
                                          & 0xFFFFFFF8);

 /* Return no memory condition if we sense we are crossing the limit */
 if (NextBreak >=  HeapBound )
100014ba:	4b0a      	ldr	r3, [pc, #40]	; (100014e4 <_sbrk+0x68>)
100014bc:	681b      	ldr	r3, [r3, #0]
100014be:	68fa      	ldr	r2, [r7, #12]
100014c0:	429a      	cmp	r2, r3
100014c2:	d301      	bcc.n	100014c8 <_sbrk+0x4c>
  return ((unsigned char *)NULL);
100014c4:	2300      	movs	r3, #0
100014c6:	e003      	b.n	100014d0 <_sbrk+0x54>
 else
 {
  heap = NextBreak;
100014c8:	4b04      	ldr	r3, [pc, #16]	; (100014dc <_sbrk+0x60>)
100014ca:	68fa      	ldr	r2, [r7, #12]
100014cc:	601a      	str	r2, [r3, #0]
  return CurrBreak;
100014ce:	693b      	ldr	r3, [r7, #16]
 }
}
100014d0:	1c18      	adds	r0, r3, #0
100014d2:	46bd      	mov	sp, r7
100014d4:	b006      	add	sp, #24
100014d6:	bd80      	pop	{r7, pc}
100014d8:	000036b8 	.word	0x000036b8
100014dc:	20000928 	.word	0x20000928
100014e0:	20000948 	.word	0x20000948
100014e4:	2000092c 	.word	0x2000092c

100014e8 <_times>:
/* ========================================================================= */
/*
 * Process timing information
 */
__attribute__((weak)) int _times(struct tms *buf)
{
100014e8:	b580      	push	{r7, lr}
100014ea:	b082      	sub	sp, #8
100014ec:	af00      	add	r7, sp, #0
100014ee:	6078      	str	r0, [r7, #4]
 return -1;
100014f0:	2301      	movs	r3, #1
100014f2:	425b      	negs	r3, r3
}
100014f4:	1c18      	adds	r0, r3, #0
100014f6:	46bd      	mov	sp, r7
100014f8:	b002      	add	sp, #8
100014fa:	bd80      	pop	{r7, pc}

100014fc <_wait>:
/*
 * Waiting for a child process to complete
 */
__attribute__((weak)) int _wait(int *status)
{
100014fc:	b580      	push	{r7, lr}
100014fe:	b082      	sub	sp, #8
10001500:	af00      	add	r7, sp, #0
10001502:	6078      	str	r0, [r7, #4]
 return -1;
10001504:	2301      	movs	r3, #1
10001506:	425b      	negs	r3, r3
}
10001508:	1c18      	adds	r0, r3, #0
1000150a:	46bd      	mov	sp, r7
1000150c:	b002      	add	sp, #8
1000150e:	bd80      	pop	{r7, pc}

10001510 <_kill>:

/*
 * Kill a process
 */
__attribute__((weak)) int _kill(int pid,int sig)
{
10001510:	b580      	push	{r7, lr}
10001512:	b082      	sub	sp, #8
10001514:	af00      	add	r7, sp, #0
10001516:	6078      	str	r0, [r7, #4]
10001518:	6039      	str	r1, [r7, #0]
 pid = pid;
 sig = sig;
 return -1;
1000151a:	2301      	movs	r3, #1
1000151c:	425b      	negs	r3, r3
}
1000151e:	1c18      	adds	r0, r3, #0
10001520:	46bd      	mov	sp, r7
10001522:	b002      	add	sp, #8
10001524:	bd80      	pop	{r7, pc}
10001526:	46c0      	nop			; (mov r8, r8)

10001528 <_fork>:

/*
 * Forking a child process
 */
__attribute__((weak)) int _fork(void)
{
10001528:	b580      	push	{r7, lr}
1000152a:	af00      	add	r7, sp, #0
 return -1;
1000152c:	2301      	movs	r3, #1
1000152e:	425b      	negs	r3, r3
}
10001530:	1c18      	adds	r0, r3, #0
10001532:	46bd      	mov	sp, r7
10001534:	bd80      	pop	{r7, pc}
10001536:	46c0      	nop			; (mov r8, r8)

10001538 <_getpid>:

/*
 * Process ID
 */
__attribute__((weak)) int _getpid(void)
{
10001538:	b580      	push	{r7, lr}
1000153a:	af00      	add	r7, sp, #0
 return -1;
1000153c:	2301      	movs	r3, #1
1000153e:	425b      	negs	r3, r3
}
10001540:	1c18      	adds	r0, r3, #0
10001542:	46bd      	mov	sp, r7
10001544:	bd80      	pop	{r7, pc}
10001546:	46c0      	nop			; (mov r8, r8)

10001548 <_exit>:

/*
 * Program/process exit
 */
__attribute__((weak)) void _exit(int rc)
{
10001548:	b580      	push	{r7, lr}
1000154a:	b082      	sub	sp, #8
1000154c:	af00      	add	r7, sp, #0
1000154e:	6078      	str	r0, [r7, #4]
 rc = rc;
 while(1){}
10001550:	e7fe      	b.n	10001550 <_exit+0x8>
10001552:	46c0      	nop			; (mov r8, r8)

10001554 <_init>:
}

/* Init */
__attribute__((weak)) void _init(void)
{}
10001554:	b580      	push	{r7, lr}
10001556:	af00      	add	r7, sp, #0
10001558:	46bd      	mov	sp, r7
1000155a:	bd80      	pop	{r7, pc}

1000155c <_isatty>:

/*
 * Terminal type evaluation
 */
__attribute__((weak)) int _isatty(int file)
{
1000155c:	b580      	push	{r7, lr}
1000155e:	b082      	sub	sp, #8
10001560:	af00      	add	r7, sp, #0
10001562:	6078      	str	r0, [r7, #4]
 file = file;
 return -1;
10001564:	2301      	movs	r3, #1
10001566:	425b      	negs	r3, r3
}
10001568:	1c18      	adds	r0, r3, #0
1000156a:	46bd      	mov	sp, r7
1000156c:	b002      	add	sp, #8
1000156e:	bd80      	pop	{r7, pc}

10001570 <PWMSP001_Init>:
 **                 Function definitions                                       **
 *******************************************************************************/
   
/* This function initializes the app */
void PWMSP001_Init(void)
{
10001570:	b580      	push	{r7, lr}
10001572:	b082      	sub	sp, #8
10001574:	af00      	add	r7, sp, #0
  status_t Error = (uint32_t)PWMSP001_OPER_NOT_ALLOWED_ERROR;
10001576:	2301      	movs	r3, #1
10001578:	607b      	str	r3, [r7, #4]
  CCU4GLOBAL_Init();
1000157a:	f001 fd5b 	bl	10003034 <CCU4GLOBAL_Init>
  Error = PWMSP001_lInit((PWMSP001_HandleType*) &PWMSP001_Handle0);
1000157e:	4b10      	ldr	r3, [pc, #64]	; (100015c0 <PWMSP001_Init+0x50>)
10001580:	1c18      	adds	r0, r3, #0
10001582:	f000 f823 	bl	100015cc <PWMSP001_lInit>
10001586:	1c03      	adds	r3, r0, #0
10001588:	607b      	str	r3, [r7, #4]
  /* Start the app if "Start after initialization" is checked */
  if(Error == (uint32_t)DAVEApp_SUCCESS)
1000158a:	687b      	ldr	r3, [r7, #4]
1000158c:	2b00      	cmp	r3, #0
1000158e:	d109      	bne.n	100015a4 <PWMSP001_Init+0x34>
  {   
    if (PWMSP001_Handle0.StartControl == (uint8_t)SET)
10001590:	4b0b      	ldr	r3, [pc, #44]	; (100015c0 <PWMSP001_Init+0x50>)
10001592:	785b      	ldrb	r3, [r3, #1]
10001594:	2b01      	cmp	r3, #1
10001596:	d105      	bne.n	100015a4 <PWMSP001_Init+0x34>
    {
      Error = PWMSP001_Start((PWMSP001_HandleType*) &PWMSP001_Handle0);
10001598:	4b09      	ldr	r3, [pc, #36]	; (100015c0 <PWMSP001_Init+0x50>)
1000159a:	1c18      	adds	r0, r3, #0
1000159c:	f000 fa34 	bl	10001a08 <PWMSP001_Start>
100015a0:	1c03      	adds	r3, r0, #0
100015a2:	607b      	str	r3, [r7, #4]
      DBG002_N(Error != DAVEApp_SUCCESS);
    }
  }
    
      PORT0->IOCR4  &= (uint32_t)(~(PORT_IOCR_PC1_PO_Msk));
100015a4:	4b07      	ldr	r3, [pc, #28]	; (100015c4 <PWMSP001_Init+0x54>)
100015a6:	4a07      	ldr	r2, [pc, #28]	; (100015c4 <PWMSP001_Init+0x54>)
100015a8:	6951      	ldr	r1, [r2, #20]
100015aa:	4a07      	ldr	r2, [pc, #28]	; (100015c8 <PWMSP001_Init+0x58>)
100015ac:	400a      	ands	r2, r1
100015ae:	615a      	str	r2, [r3, #20]
      PORT0->IOCR4  |= (((uint32_t)0 << (uint32_t)PORT_IOCR_PC1_PO_Pos) & \
100015b0:	4b04      	ldr	r3, [pc, #16]	; (100015c4 <PWMSP001_Init+0x54>)
100015b2:	4a04      	ldr	r2, [pc, #16]	; (100015c4 <PWMSP001_Init+0x54>)
100015b4:	6952      	ldr	r2, [r2, #20]
100015b6:	615a      	str	r2, [r3, #20]
                                   (uint32_t)PORT_IOCR_PC1_PO_Msk);
}
100015b8:	46bd      	mov	sp, r7
100015ba:	b002      	add	sp, #8
100015bc:	bd80      	pop	{r7, pc}
100015be:	46c0      	nop			; (mov r8, r8)
100015c0:	10003e28 	.word	0x10003e28
100015c4:	40040000 	.word	0x40040000
100015c8:	ffffbfff 	.word	0xffffbfff

100015cc <PWMSP001_lInit>:

/*<<<DD_PWMSP001_API_1>>>*/
/* This function initializes an instance of the app */
status_t PWMSP001_lInit(const PWMSP001_HandleType* HandlePtr)
{
100015cc:	b5b0      	push	{r4, r5, r7, lr}
100015ce:	b084      	sub	sp, #16
100015d0:	af00      	add	r7, sp, #0
100015d2:	6078      	str	r0, [r7, #4]
  status_t Status = (uint32_t)PWMSP001_OPER_NOT_ALLOWED_ERROR;
100015d4:	2301      	movs	r3, #1
100015d6:	60fb      	str	r3, [r7, #12]

  do
  {
    /*<<<DD_PWMSP001_API_1_1>>>*/
    if (HandlePtr->DynamicDataType->StateType != PWMSP001_UNINITIALIZED)
100015d8:	687b      	ldr	r3, [r7, #4]
100015da:	6bdb      	ldr	r3, [r3, #60]	; 0x3c
100015dc:	781b      	ldrb	r3, [r3, #0]
100015de:	2b00      	cmp	r3, #0
100015e0:	d000      	beq.n	100015e4 <PWMSP001_lInit+0x18>
100015e2:	e156      	b.n	10001892 <PWMSP001_lInit+0x2c6>
    {
      break;
    }
    HandlePtr->CC4yRegsPtr->TCCLR = PWMSP001_SLICE_CLEAR;
100015e4:	687b      	ldr	r3, [r7, #4]
100015e6:	699b      	ldr	r3, [r3, #24]
100015e8:	2207      	movs	r2, #7
100015ea:	611a      	str	r2, [r3, #16]

    /*<<<DD_PWMSP001_API_1_3>>>*/
    /* If external stop trigger is setelected */
    if (HandlePtr->kExtStopTrig == (uint8_t)SET)
100015ec:	687b      	ldr	r3, [r7, #4]
100015ee:	7bdb      	ldrb	r3, [r3, #15]
100015f0:	2b01      	cmp	r3, #1
100015f2:	d125      	bne.n	10001640 <PWMSP001_lInit+0x74>
    {
      HandlePtr->CC4yRegsPtr->INS &= (uint32_t)~((uint32_t)CCU4_CC4_INS_EV1EM_Msk | CCU4_CC4_INS_LPF1M_Msk);
100015f4:	687b      	ldr	r3, [r7, #4]
100015f6:	699b      	ldr	r3, [r3, #24]
100015f8:	687a      	ldr	r2, [r7, #4]
100015fa:	6992      	ldr	r2, [r2, #24]
100015fc:	6811      	ldr	r1, [r2, #0]
100015fe:	4aa8      	ldr	r2, [pc, #672]	; (100018a0 <PWMSP001_lInit+0x2d4>)
10001600:	400a      	ands	r2, r1
10001602:	601a      	str	r2, [r3, #0]
      HandlePtr->CC4yRegsPtr->CMC &= (uint32_t)~CCU4_CC4_CMC_ENDS_Msk;
10001604:	687b      	ldr	r3, [r7, #4]
10001606:	699b      	ldr	r3, [r3, #24]
10001608:	687a      	ldr	r2, [r7, #4]
1000160a:	6992      	ldr	r2, [r2, #24]
1000160c:	6852      	ldr	r2, [r2, #4]
1000160e:	210c      	movs	r1, #12
10001610:	438a      	bics	r2, r1
10001612:	605a      	str	r2, [r3, #4]
      HandlePtr->CC4yRegsPtr->INS |= ((((uint32_t)HandlePtr->kStopEdge << (uint32_t)CCU4_CC4_INS_EV1EM_Pos)\
10001614:	687b      	ldr	r3, [r7, #4]
10001616:	699b      	ldr	r3, [r3, #24]
10001618:	687a      	ldr	r2, [r7, #4]
1000161a:	6992      	ldr	r2, [r2, #24]
1000161c:	6811      	ldr	r1, [r2, #0]
1000161e:	6878      	ldr	r0, [r7, #4]
10001620:	2224      	movs	r2, #36	; 0x24
10001622:	5c82      	ldrb	r2, [r0, r2]
10001624:	0490      	lsls	r0, r2, #18
	    & (uint32_t)CCU4_CC4_INS_EV1EM_Msk)| (((uint32_t)PWMSP001_LPF  << (uint32_t)CCU4_CC4_INS_LPF1M_Pos)\
10001626:	22c0      	movs	r2, #192	; 0xc0
10001628:	0312      	lsls	r2, r2, #12
1000162a:	4002      	ands	r2, r0
    /* If external stop trigger is setelected */
    if (HandlePtr->kExtStopTrig == (uint8_t)SET)
    {
      HandlePtr->CC4yRegsPtr->INS &= (uint32_t)~((uint32_t)CCU4_CC4_INS_EV1EM_Msk | CCU4_CC4_INS_LPF1M_Msk);
      HandlePtr->CC4yRegsPtr->CMC &= (uint32_t)~CCU4_CC4_CMC_ENDS_Msk;
      HandlePtr->CC4yRegsPtr->INS |= ((((uint32_t)HandlePtr->kStopEdge << (uint32_t)CCU4_CC4_INS_EV1EM_Pos)\
1000162c:	430a      	orrs	r2, r1
1000162e:	601a      	str	r2, [r3, #0]
	    & (uint32_t)CCU4_CC4_INS_EV1EM_Msk)| (((uint32_t)PWMSP001_LPF  << (uint32_t)CCU4_CC4_INS_LPF1M_Pos)\
		  & (uint32_t)CCU4_CC4_INS_LPF1M_Msk));

      HandlePtr->CC4yRegsPtr->CMC |= (((uint32_t)PWMSP001_EVENT_1  <<
10001630:	687b      	ldr	r3, [r7, #4]
10001632:	699b      	ldr	r3, [r3, #24]
10001634:	687a      	ldr	r2, [r7, #4]
10001636:	6992      	ldr	r2, [r2, #24]
10001638:	6852      	ldr	r2, [r2, #4]
1000163a:	2108      	movs	r1, #8
1000163c:	430a      	orrs	r2, r1
1000163e:	605a      	str	r2, [r3, #4]
          (uint32_t)CCU4_CC4_CMC_ENDS_Pos)& (uint32_t)CCU4_CC4_CMC_ENDS_Msk);
    }/*End of if (HandlePtr->kExtStopTrig == SET)*/

    /*<<<DD_PWMSP001_API_1_4>>>*/
    /* Trap configurations if trap is enabled */
    if ((HandlePtr->kTrapEnable == (uint8_t)SET) &&\
10001640:	687b      	ldr	r3, [r7, #4]
10001642:	7c5b      	ldrb	r3, [r3, #17]
10001644:	2b01      	cmp	r3, #1
10001646:	d12a      	bne.n	1000169e <PWMSP001_lInit+0xd2>
        ((HandlePtr->kTimerConcatenation != (uint8_t)SET))
10001648:	687a      	ldr	r2, [r7, #4]
1000164a:	2320      	movs	r3, #32
1000164c:	5cd3      	ldrb	r3, [r2, r3]
          (uint32_t)CCU4_CC4_CMC_ENDS_Pos)& (uint32_t)CCU4_CC4_CMC_ENDS_Msk);
    }/*End of if (HandlePtr->kExtStopTrig == SET)*/

    /*<<<DD_PWMSP001_API_1_4>>>*/
    /* Trap configurations if trap is enabled */
    if ((HandlePtr->kTrapEnable == (uint8_t)SET) &&\
1000164e:	2b01      	cmp	r3, #1
10001650:	d025      	beq.n	1000169e <PWMSP001_lInit+0xd2>
        ((HandlePtr->kTimerConcatenation != (uint8_t)SET))
    )
    {
      HandlePtr->CC4yRegsPtr -> INS &= ~((uint32_t)CCU4_CC4_INS_EV2EM_Msk | \
10001652:	687b      	ldr	r3, [r7, #4]
10001654:	699b      	ldr	r3, [r3, #24]
10001656:	687a      	ldr	r2, [r7, #4]
10001658:	6992      	ldr	r2, [r2, #24]
1000165a:	6811      	ldr	r1, [r2, #0]
1000165c:	4a91      	ldr	r2, [pc, #580]	; (100018a4 <PWMSP001_lInit+0x2d8>)
1000165e:	400a      	ands	r2, r1
10001660:	601a      	str	r2, [r3, #0]
	    (uint32_t)CCU4_CC4_INS_EV2LM_Msk | (uint32_t)CCU4_CC4_INS_LPF2M_Msk);
      HandlePtr->CC4yRegsPtr->CMC &= (uint32_t)~CCU4_CC4_CMC_TS_Msk;
10001662:	687b      	ldr	r3, [r7, #4]
10001664:	699b      	ldr	r3, [r3, #24]
10001666:	687a      	ldr	r2, [r7, #4]
10001668:	6992      	ldr	r2, [r2, #24]
1000166a:	6851      	ldr	r1, [r2, #4]
1000166c:	4a8e      	ldr	r2, [pc, #568]	; (100018a8 <PWMSP001_lInit+0x2dc>)
1000166e:	400a      	ands	r2, r1
10001670:	605a      	str	r2, [r3, #4]
      HandlePtr->CC4yRegsPtr -> INS |= ((((uint32_t)0 << (uint32_t)CCU4_CC4_INS_EV2EM_Pos)\
10001672:	687b      	ldr	r3, [r7, #4]
10001674:	699b      	ldr	r3, [r3, #24]
10001676:	687a      	ldr	r2, [r7, #4]
10001678:	6992      	ldr	r2, [r2, #24]
1000167a:	6811      	ldr	r1, [r2, #0]
	    &(uint32_t)CCU4_CC4_INS_EV2EM_Msk) | (((uint32_t)HandlePtr->kTrapLevel  <<	\
1000167c:	687a      	ldr	r2, [r7, #4]
1000167e:	7812      	ldrb	r2, [r2, #0]
10001680:	0610      	lsls	r0, r2, #24
		  (uint32_t)CCU4_CC4_INS_EV2LM_Pos)& (uint32_t)CCU4_CC4_INS_EV2LM_Msk ) | \
10001682:	2280      	movs	r2, #128	; 0x80
10001684:	0452      	lsls	r2, r2, #17
10001686:	4002      	ands	r2, r0
    )
    {
      HandlePtr->CC4yRegsPtr -> INS &= ~((uint32_t)CCU4_CC4_INS_EV2EM_Msk | \
	    (uint32_t)CCU4_CC4_INS_EV2LM_Msk | (uint32_t)CCU4_CC4_INS_LPF2M_Msk);
      HandlePtr->CC4yRegsPtr->CMC &= (uint32_t)~CCU4_CC4_CMC_TS_Msk;
      HandlePtr->CC4yRegsPtr -> INS |= ((((uint32_t)0 << (uint32_t)CCU4_CC4_INS_EV2EM_Pos)\
10001688:	430a      	orrs	r2, r1
1000168a:	601a      	str	r2, [r3, #0]
	    &(uint32_t)CCU4_CC4_INS_EV2EM_Msk) | (((uint32_t)HandlePtr->kTrapLevel  <<	\
		  (uint32_t)CCU4_CC4_INS_EV2LM_Pos)& (uint32_t)CCU4_CC4_INS_EV2LM_Msk ) | \
		    (((uint32_t)0 << (uint32_t)CCU4_CC4_INS_LPF2M_Pos)& \
			  (uint32_t)CCU4_CC4_INS_LPF2M_Msk));

      HandlePtr->CC4yRegsPtr->CMC |= ((uint32_t)1 << (uint32_t)CCU4_CC4_CMC_TS_Pos);
1000168c:	687b      	ldr	r3, [r7, #4]
1000168e:	699b      	ldr	r3, [r3, #24]
10001690:	687a      	ldr	r2, [r7, #4]
10001692:	6992      	ldr	r2, [r2, #24]
10001694:	6852      	ldr	r2, [r2, #4]
10001696:	2180      	movs	r1, #128	; 0x80
10001698:	0289      	lsls	r1, r1, #10
1000169a:	430a      	orrs	r2, r1
1000169c:	605a      	str	r2, [r3, #4]
    }/* End of  if (HandlePtr->kTrapEnable == (uint8_t)SET)*/
    
    HandlePtr->CC4yRegsPtr->TC &= ~((uint32_t)CCU4_CC4_TC_TCM_Msk | \
1000169e:	687b      	ldr	r3, [r7, #4]
100016a0:	699b      	ldr	r3, [r3, #24]
100016a2:	687a      	ldr	r2, [r7, #4]
100016a4:	6992      	ldr	r2, [r2, #24]
100016a6:	6951      	ldr	r1, [r2, #20]
100016a8:	4a80      	ldr	r2, [pc, #512]	; (100018ac <PWMSP001_lInit+0x2e0>)
100016aa:	400a      	ands	r2, r1
100016ac:	615a      	str	r2, [r3, #20]
	   (uint32_t)CCU4_CC4_TC_CMOD_Msk | (uint32_t)CCU4_CC4_TC_STRM_Msk | \
	   (uint32_t)CCU4_CC4_TC_ENDM_Msk | (uint32_t)CCU4_CC4_TC_DITHE_Msk);
    
    HandlePtr->CC4yRegsPtr->TC |= (((uint32_t)HandlePtr->CountingModeType << \
100016ae:	687b      	ldr	r3, [r7, #4]
100016b0:	699b      	ldr	r3, [r3, #24]
100016b2:	687a      	ldr	r2, [r7, #4]
100016b4:	6992      	ldr	r2, [r2, #24]
100016b6:	6951      	ldr	r1, [r2, #20]
100016b8:	6878      	ldr	r0, [r7, #4]
100016ba:	2236      	movs	r2, #54	; 0x36
100016bc:	5c82      	ldrb	r2, [r0, r2]
100016be:	1c10      	adds	r0, r2, #0
	  (uint32_t)CCU4_CC4_TC_TCM_Pos)& (uint32_t)CCU4_CC4_TC_TCM_Msk)|\
100016c0:	2201      	movs	r2, #1
100016c2:	4010      	ands	r0, r2
		  (((uint32_t)PWMSP001_COMPARE_MODE  << \
		    (uint32_t)CCU4_CC4_TC_CMOD_Pos)& (uint32_t)CCU4_CC4_TC_CMOD_Msk)| \
			  (((uint32_t)HandlePtr->ExtStartConfigType  << (uint32_t)CCU4_CC4_TC_STRM_Pos)\
100016c4:	687c      	ldr	r4, [r7, #4]
100016c6:	2234      	movs	r2, #52	; 0x34
100016c8:	5ca2      	ldrb	r2, [r4, r2]
100016ca:	0294      	lsls	r4, r2, #10
			    &(uint32_t)CCU4_CC4_TC_STRM_Msk)|(((uint32_t)HandlePtr->ExtStopConfigType <<\
100016cc:	2280      	movs	r2, #128	; 0x80
100016ce:	00d2      	lsls	r2, r2, #3
100016d0:	4022      	ands	r2, r4
	   (uint32_t)CCU4_CC4_TC_ENDM_Msk | (uint32_t)CCU4_CC4_TC_DITHE_Msk);
    
    HandlePtr->CC4yRegsPtr->TC |= (((uint32_t)HandlePtr->CountingModeType << \
	  (uint32_t)CCU4_CC4_TC_TCM_Pos)& (uint32_t)CCU4_CC4_TC_TCM_Msk)|\
		  (((uint32_t)PWMSP001_COMPARE_MODE  << \
		    (uint32_t)CCU4_CC4_TC_CMOD_Pos)& (uint32_t)CCU4_CC4_TC_CMOD_Msk)| \
100016d2:	4310      	orrs	r0, r2
			  (((uint32_t)HandlePtr->ExtStartConfigType  << (uint32_t)CCU4_CC4_TC_STRM_Pos)\
			    &(uint32_t)CCU4_CC4_TC_STRM_Msk)|(((uint32_t)HandlePtr->ExtStopConfigType <<\
100016d4:	687c      	ldr	r4, [r7, #4]
100016d6:	2235      	movs	r2, #53	; 0x35
100016d8:	5ca2      	ldrb	r2, [r4, r2]
100016da:	0214      	lsls	r4, r2, #8
				  (uint32_t)CCU4_CC4_TC_ENDM_Pos)& (uint32_t)CCU4_CC4_TC_ENDM_Msk);
100016dc:	22c0      	movs	r2, #192	; 0xc0
100016de:	0092      	lsls	r2, r2, #2
100016e0:	4022      	ands	r2, r4
    HandlePtr->CC4yRegsPtr->TC |= (((uint32_t)HandlePtr->CountingModeType << \
	  (uint32_t)CCU4_CC4_TC_TCM_Pos)& (uint32_t)CCU4_CC4_TC_TCM_Msk)|\
		  (((uint32_t)PWMSP001_COMPARE_MODE  << \
		    (uint32_t)CCU4_CC4_TC_CMOD_Pos)& (uint32_t)CCU4_CC4_TC_CMOD_Msk)| \
			  (((uint32_t)HandlePtr->ExtStartConfigType  << (uint32_t)CCU4_CC4_TC_STRM_Pos)\
			    &(uint32_t)CCU4_CC4_TC_STRM_Msk)|(((uint32_t)HandlePtr->ExtStopConfigType <<\
100016e2:	4302      	orrs	r2, r0
    
    HandlePtr->CC4yRegsPtr->TC &= ~((uint32_t)CCU4_CC4_TC_TCM_Msk | \
	   (uint32_t)CCU4_CC4_TC_CMOD_Msk | (uint32_t)CCU4_CC4_TC_STRM_Msk | \
	   (uint32_t)CCU4_CC4_TC_ENDM_Msk | (uint32_t)CCU4_CC4_TC_DITHE_Msk);
    
    HandlePtr->CC4yRegsPtr->TC |= (((uint32_t)HandlePtr->CountingModeType << \
100016e4:	430a      	orrs	r2, r1
100016e6:	615a      	str	r2, [r3, #20]
				  (uint32_t)CCU4_CC4_TC_ENDM_Pos)& (uint32_t)CCU4_CC4_TC_ENDM_Msk);
    /*
     * If timer concatenation is enabled during single shot mode lower timer 
     * should be free running
     */
	if (HandlePtr->kTimerConcatenation != (uint8_t)SET)
100016e8:	687a      	ldr	r2, [r7, #4]
100016ea:	2320      	movs	r3, #32
100016ec:	5cd3      	ldrb	r3, [r2, r3]
100016ee:	2b01      	cmp	r3, #1
100016f0:	d00d      	beq.n	1000170e <PWMSP001_lInit+0x142>
	{
		WR_REG(HandlePtr->CC4yRegsPtr->TC, (uint32_t)CCU4_CC4_TC_TSSM_Msk, \
100016f2:	687b      	ldr	r3, [r7, #4]
100016f4:	699b      	ldr	r3, [r3, #24]
100016f6:	687a      	ldr	r2, [r7, #4]
100016f8:	7b12      	ldrb	r2, [r2, #12]
100016fa:	0051      	lsls	r1, r2, #1
100016fc:	2202      	movs	r2, #2
100016fe:	4011      	ands	r1, r2
10001700:	687a      	ldr	r2, [r7, #4]
10001702:	6992      	ldr	r2, [r2, #24]
10001704:	6952      	ldr	r2, [r2, #20]
10001706:	2002      	movs	r0, #2
10001708:	4382      	bics	r2, r0
1000170a:	430a      	orrs	r2, r1
1000170c:	615a      	str	r2, [r3, #20]
			  		  (uint32_t)CCU4_CC4_TC_TSSM_Pos, HandlePtr->kTimerMode);
	} 
    
    /*Set the dither mode setting*/
    HandlePtr->CC4yRegsPtr->TC |= ((uint32_t)HandlePtr->kDitherSetting << \
1000170e:	687b      	ldr	r3, [r7, #4]
10001710:	699b      	ldr	r3, [r3, #24]
10001712:	687a      	ldr	r2, [r7, #4]
10001714:	6992      	ldr	r2, [r2, #24]
10001716:	6951      	ldr	r1, [r2, #20]
10001718:	6878      	ldr	r0, [r7, #4]
1000171a:	2221      	movs	r2, #33	; 0x21
1000171c:	5c82      	ldrb	r2, [r0, r2]
1000171e:	0350      	lsls	r0, r2, #13
	  (uint32_t)CCU4_CC4_TC_DITHE_Pos) & (uint32_t)CCU4_CC4_TC_DITHE_Msk ;
10001720:	22c0      	movs	r2, #192	; 0xc0
10001722:	01d2      	lsls	r2, r2, #7
10001724:	4002      	ands	r2, r0
		WR_REG(HandlePtr->CC4yRegsPtr->TC, (uint32_t)CCU4_CC4_TC_TSSM_Msk, \
			  		  (uint32_t)CCU4_CC4_TC_TSSM_Pos, HandlePtr->kTimerMode);
	} 
    
    /*Set the dither mode setting*/
    HandlePtr->CC4yRegsPtr->TC |= ((uint32_t)HandlePtr->kDitherSetting << \
10001726:	430a      	orrs	r2, r1
10001728:	615a      	str	r2, [r3, #20]
	  (uint32_t)CCU4_CC4_TC_DITHE_Pos) & (uint32_t)CCU4_CC4_TC_DITHE_Msk ;
    
    WR_REG(HandlePtr->CC4yRegsPtr->DITS,(uint32_t)CCU4_CC4_DITS_DCVS_Msk,\
1000172a:	687b      	ldr	r3, [r7, #4]
1000172c:	699b      	ldr	r3, [r3, #24]
1000172e:	687a      	ldr	r2, [r7, #4]
10001730:	7b52      	ldrb	r2, [r2, #13]
10001732:	1c11      	adds	r1, r2, #0
10001734:	220f      	movs	r2, #15
10001736:	4011      	ands	r1, r2
10001738:	687a      	ldr	r2, [r7, #4]
1000173a:	6992      	ldr	r2, [r2, #24]
1000173c:	6a12      	ldr	r2, [r2, #32]
1000173e:	200f      	movs	r0, #15
10001740:	4382      	bics	r2, r0
10001742:	430a      	orrs	r2, r1
10001744:	621a      	str	r2, [r3, #32]
      (uint32_t)CCU4_CC4_DITS_DCVS_Pos, HandlePtr->kDitherCompare);

    /*Configure Trap mode as per GUI*/
    if(HandlePtr->kTimerConcatenation != (uint8_t)SET)
10001746:	687a      	ldr	r2, [r7, #4]
10001748:	2320      	movs	r3, #32
1000174a:	5cd3      	ldrb	r3, [r2, r3]
1000174c:	2b01      	cmp	r3, #1
1000174e:	d02c      	beq.n	100017aa <PWMSP001_lInit+0x1de>
    {
      /*<<<DD_PWMSP001_API_1_6>>>*/
      WR_REG(HandlePtr->CC4yRegsPtr->TC, (uint32_t)CCU4_CC4_TC_TRPSE_Msk,
10001750:	687b      	ldr	r3, [r7, #4]
10001752:	699b      	ldr	r3, [r3, #24]
10001754:	687a      	ldr	r2, [r7, #4]
10001756:	7c92      	ldrb	r2, [r2, #18]
10001758:	0551      	lsls	r1, r2, #21
1000175a:	2280      	movs	r2, #128	; 0x80
1000175c:	0392      	lsls	r2, r2, #14
1000175e:	4011      	ands	r1, r2
10001760:	687a      	ldr	r2, [r7, #4]
10001762:	6992      	ldr	r2, [r2, #24]
10001764:	6950      	ldr	r0, [r2, #20]
10001766:	4a52      	ldr	r2, [pc, #328]	; (100018b0 <PWMSP001_lInit+0x2e4>)
10001768:	4002      	ands	r2, r0
1000176a:	430a      	orrs	r2, r1
1000176c:	615a      	str	r2, [r3, #20]
          (uint32_t)CCU4_CC4_TC_TRPSE_Pos, HandlePtr->kTrapSync);

      WR_REG(HandlePtr->CC4yRegsPtr->TC, (uint32_t)CCU4_CC4_TC_TRPSW_Msk,
1000176e:	687b      	ldr	r3, [r7, #4]
10001770:	699b      	ldr	r3, [r3, #24]
10001772:	687a      	ldr	r2, [r7, #4]
10001774:	7cd2      	ldrb	r2, [r2, #19]
10001776:	0591      	lsls	r1, r2, #22
10001778:	2280      	movs	r2, #128	; 0x80
1000177a:	03d2      	lsls	r2, r2, #15
1000177c:	4011      	ands	r1, r2
1000177e:	687a      	ldr	r2, [r7, #4]
10001780:	6992      	ldr	r2, [r2, #24]
10001782:	6950      	ldr	r0, [r2, #20]
10001784:	4a4b      	ldr	r2, [pc, #300]	; (100018b4 <PWMSP001_lInit+0x2e8>)
10001786:	4002      	ands	r2, r0
10001788:	430a      	orrs	r2, r1
1000178a:	615a      	str	r2, [r3, #20]
          (uint32_t)CCU4_CC4_TC_TRPSW_Pos, HandlePtr->kTrapExitControl);
      
	  WR_REG(HandlePtr->CC4yRegsPtr->TC, (uint32_t)CCU4_CC4_TC_TRAPE_Msk, \
1000178c:	687b      	ldr	r3, [r7, #4]
1000178e:	699b      	ldr	r3, [r3, #24]
10001790:	687a      	ldr	r2, [r7, #4]
10001792:	7c52      	ldrb	r2, [r2, #17]
10001794:	0451      	lsls	r1, r2, #17
10001796:	2280      	movs	r2, #128	; 0x80
10001798:	0292      	lsls	r2, r2, #10
1000179a:	4011      	ands	r1, r2
1000179c:	687a      	ldr	r2, [r7, #4]
1000179e:	6992      	ldr	r2, [r2, #24]
100017a0:	6950      	ldr	r0, [r2, #20]
100017a2:	4a41      	ldr	r2, [pc, #260]	; (100018a8 <PWMSP001_lInit+0x2dc>)
100017a4:	4002      	ands	r2, r0
100017a6:	430a      	orrs	r2, r1
100017a8:	615a      	str	r2, [r3, #20]
		  (uint32_t)CCU4_CC4_TC_TRAPE_Pos, HandlePtr->kTrapEnable);
    }
    /*Set the prescalar divider and passive level of the o/p signal.*/
    WR_REG(HandlePtr->CC4yRegsPtr->PSC, (uint32_t)CCU4_CC4_PSC_PSIV_Msk,\
100017aa:	687b      	ldr	r3, [r7, #4]
100017ac:	699b      	ldr	r3, [r3, #24]
100017ae:	6879      	ldr	r1, [r7, #4]
100017b0:	2222      	movs	r2, #34	; 0x22
100017b2:	5c8a      	ldrb	r2, [r1, r2]
100017b4:	1c11      	adds	r1, r2, #0
100017b6:	220f      	movs	r2, #15
100017b8:	4011      	ands	r1, r2
100017ba:	687a      	ldr	r2, [r7, #4]
100017bc:	6992      	ldr	r2, [r2, #24]
100017be:	6a52      	ldr	r2, [r2, #36]	; 0x24
100017c0:	200f      	movs	r0, #15
100017c2:	4382      	bics	r2, r0
100017c4:	430a      	orrs	r2, r1
100017c6:	625a      	str	r2, [r3, #36]	; 0x24
      (uint32_t)CCU4_CC4_PSC_PSIV_Pos, HandlePtr->kCCUPrescalar);
    HandlePtr->CC4yRegsPtr->PSL = HandlePtr->kPassiveLevel;
100017c8:	687b      	ldr	r3, [r7, #4]
100017ca:	699b      	ldr	r3, [r3, #24]
100017cc:	687a      	ldr	r2, [r7, #4]
100017ce:	7c12      	ldrb	r2, [r2, #16]
100017d0:	619a      	str	r2, [r3, #24]

    /*<<<DD_PWMSP001_API_1_7>>>*/
    /*Setting period register's value*/
    HandlePtr->CC4yRegsPtr->PRS = (uint32_t)(HandlePtr->kPeriodVal & 0xFFFFU);
100017d2:	687b      	ldr	r3, [r7, #4]
100017d4:	699b      	ldr	r3, [r3, #24]
100017d6:	687a      	ldr	r2, [r7, #4]
100017d8:	6a92      	ldr	r2, [r2, #40]	; 0x28
100017da:	0412      	lsls	r2, r2, #16
100017dc:	0c12      	lsrs	r2, r2, #16
100017de:	635a      	str	r2, [r3, #52]	; 0x34
    /*Setting compare register's value*/
    HandlePtr->CC4yRegsPtr->CRS = (uint32_t)(HandlePtr->kCompareValue & 0xFFFFU);
100017e0:	687b      	ldr	r3, [r7, #4]
100017e2:	699b      	ldr	r3, [r3, #24]
100017e4:	687a      	ldr	r2, [r7, #4]
100017e6:	6892      	ldr	r2, [r2, #8]
100017e8:	0412      	lsls	r2, r2, #16
100017ea:	0c12      	lsrs	r2, r2, #16
100017ec:	63da      	str	r2, [r3, #60]	; 0x3c
    HandlePtr->CC4yRegsPtr->SWR |= PWMSP001_ALL_CCU4_INTR_CLEAR;
100017ee:	687b      	ldr	r3, [r7, #4]
100017f0:	699a      	ldr	r2, [r3, #24]
100017f2:	687b      	ldr	r3, [r7, #4]
100017f4:	6999      	ldr	r1, [r3, #24]
100017f6:	23b0      	movs	r3, #176	; 0xb0
100017f8:	58cb      	ldr	r3, [r1, r3]
100017fa:	492f      	ldr	r1, [pc, #188]	; (100018b8 <PWMSP001_lInit+0x2ec>)
100017fc:	4319      	orrs	r1, r3
100017fe:	23b0      	movs	r3, #176	; 0xb0
10001800:	50d1      	str	r1, [r2, r3]

    /*Applying register's settings for the second slice if timer concatenation
     * is set */
    if (HandlePtr->kTimerConcatenation == (uint8_t)SET)
10001802:	687a      	ldr	r2, [r7, #4]
10001804:	2320      	movs	r3, #32
10001806:	5cd3      	ldrb	r3, [r2, r3]
10001808:	2b01      	cmp	r3, #1
1000180a:	d10f      	bne.n	1000182c <PWMSP001_lInit+0x260>
    {
      PWMSP001_lConfigureSecondSlice(HandlePtr);
1000180c:	687b      	ldr	r3, [r7, #4]
1000180e:	1c18      	adds	r0, r3, #0
10001810:	f000 ff98 	bl	10002744 <PWMSP001_lConfigureSecondSlice>
      HandlePtr->CC4yRegs1Ptr->INTE |= HandlePtr->InterruptControl;
10001814:	687b      	ldr	r3, [r7, #4]
10001816:	69da      	ldr	r2, [r3, #28]
10001818:	687b      	ldr	r3, [r7, #4]
1000181a:	69d9      	ldr	r1, [r3, #28]
1000181c:	23a4      	movs	r3, #164	; 0xa4
1000181e:	58c9      	ldr	r1, [r1, r3]
10001820:	687b      	ldr	r3, [r7, #4]
10001822:	6b1b      	ldr	r3, [r3, #48]	; 0x30
10001824:	4319      	orrs	r1, r3
10001826:	23a4      	movs	r3, #164	; 0xa4
10001828:	50d1      	str	r1, [r2, r3]
1000182a:	e00a      	b.n	10001842 <PWMSP001_lInit+0x276>

    } /*End of if (HandlePtr->kTimerConcatenation == SET)*/
    else
    {
      HandlePtr->CC4yRegsPtr->INTE |= HandlePtr->InterruptControl;
1000182c:	687b      	ldr	r3, [r7, #4]
1000182e:	699a      	ldr	r2, [r3, #24]
10001830:	687b      	ldr	r3, [r7, #4]
10001832:	6999      	ldr	r1, [r3, #24]
10001834:	23a4      	movs	r3, #164	; 0xa4
10001836:	58c9      	ldr	r1, [r1, r3]
10001838:	687b      	ldr	r3, [r7, #4]
1000183a:	6b1b      	ldr	r3, [r3, #48]	; 0x30
1000183c:	4319      	orrs	r1, r3
1000183e:	23a4      	movs	r3, #164	; 0xa4
10001840:	50d1      	str	r1, [r2, r3]
    }
    
    
    /*Request SW shadow transfer for period, compare, dither and prescalar level*/
    HandlePtr->CC4yKernRegsPtr->GCSS |= (((uint32_t)1 << ((uint32_t)4 * \
10001842:	687b      	ldr	r3, [r7, #4]
10001844:	695b      	ldr	r3, [r3, #20]
10001846:	687a      	ldr	r2, [r7, #4]
10001848:	6952      	ldr	r2, [r2, #20]
1000184a:	6911      	ldr	r1, [r2, #16]
	  (uint32_t)HandlePtr->FirstSlice)) | ((uint32_t)1 <<(((uint32_t)4 * \
1000184c:	6878      	ldr	r0, [r7, #4]
1000184e:	2237      	movs	r2, #55	; 0x37
10001850:	5c82      	ldrb	r2, [r0, r2]
      HandlePtr->CC4yRegsPtr->INTE |= HandlePtr->InterruptControl;
    }
    
    
    /*Request SW shadow transfer for period, compare, dither and prescalar level*/
    HandlePtr->CC4yKernRegsPtr->GCSS |= (((uint32_t)1 << ((uint32_t)4 * \
10001852:	0092      	lsls	r2, r2, #2
10001854:	2001      	movs	r0, #1
10001856:	4090      	lsls	r0, r2
	  (uint32_t)HandlePtr->FirstSlice)) | ((uint32_t)1 <<(((uint32_t)4 * \
	    (uint32_t)HandlePtr->FirstSlice) + (uint32_t)1))| ((uint32_t)1 << \
10001858:	687c      	ldr	r4, [r7, #4]
1000185a:	2237      	movs	r2, #55	; 0x37
1000185c:	5ca2      	ldrb	r2, [r4, r2]
    }
    
    
    /*Request SW shadow transfer for period, compare, dither and prescalar level*/
    HandlePtr->CC4yKernRegsPtr->GCSS |= (((uint32_t)1 << ((uint32_t)4 * \
	  (uint32_t)HandlePtr->FirstSlice)) | ((uint32_t)1 <<(((uint32_t)4 * \
1000185e:	0092      	lsls	r2, r2, #2
	    (uint32_t)HandlePtr->FirstSlice) + (uint32_t)1))| ((uint32_t)1 << \
10001860:	3201      	adds	r2, #1
    }
    
    
    /*Request SW shadow transfer for period, compare, dither and prescalar level*/
    HandlePtr->CC4yKernRegsPtr->GCSS |= (((uint32_t)1 << ((uint32_t)4 * \
	  (uint32_t)HandlePtr->FirstSlice)) | ((uint32_t)1 <<(((uint32_t)4 * \
10001862:	2401      	movs	r4, #1
10001864:	1c25      	adds	r5, r4, #0
10001866:	4095      	lsls	r5, r2
10001868:	1c2a      	adds	r2, r5, #0
1000186a:	4310      	orrs	r0, r2
	    (uint32_t)HandlePtr->FirstSlice) + (uint32_t)1))| ((uint32_t)1 << \
		  (((uint32_t)4 * (uint32_t)HandlePtr->FirstSlice) + (uint32_t)2)));
1000186c:	687c      	ldr	r4, [r7, #4]
1000186e:	2237      	movs	r2, #55	; 0x37
10001870:	5ca2      	ldrb	r2, [r4, r2]
10001872:	0092      	lsls	r2, r2, #2
10001874:	3202      	adds	r2, #2
    
    
    /*Request SW shadow transfer for period, compare, dither and prescalar level*/
    HandlePtr->CC4yKernRegsPtr->GCSS |= (((uint32_t)1 << ((uint32_t)4 * \
	  (uint32_t)HandlePtr->FirstSlice)) | ((uint32_t)1 <<(((uint32_t)4 * \
	    (uint32_t)HandlePtr->FirstSlice) + (uint32_t)1))| ((uint32_t)1 << \
10001876:	2401      	movs	r4, #1
10001878:	1c25      	adds	r5, r4, #0
1000187a:	4095      	lsls	r5, r2
1000187c:	1c2a      	adds	r2, r5, #0
1000187e:	4302      	orrs	r2, r0
      HandlePtr->CC4yRegsPtr->INTE |= HandlePtr->InterruptControl;
    }
    
    
    /*Request SW shadow transfer for period, compare, dither and prescalar level*/
    HandlePtr->CC4yKernRegsPtr->GCSS |= (((uint32_t)1 << ((uint32_t)4 * \
10001880:	430a      	orrs	r2, r1
10001882:	611a      	str	r2, [r3, #16]
	  (uint32_t)HandlePtr->FirstSlice)) | ((uint32_t)1 <<(((uint32_t)4 * \
	    (uint32_t)HandlePtr->FirstSlice) + (uint32_t)1))| ((uint32_t)1 << \
		  (((uint32_t)4 * (uint32_t)HandlePtr->FirstSlice) + (uint32_t)2)));

    Status = (uint32_t)DAVEApp_SUCCESS;
10001884:	2300      	movs	r3, #0
10001886:	60fb      	str	r3, [r7, #12]
    HandlePtr->DynamicDataType->StateType = PWMSP001_INITIALIZED;
10001888:	687b      	ldr	r3, [r7, #4]
1000188a:	6bdb      	ldr	r3, [r3, #60]	; 0x3c
1000188c:	2201      	movs	r2, #1
1000188e:	701a      	strb	r2, [r3, #0]
10001890:	e000      	b.n	10001894 <PWMSP001_lInit+0x2c8>
  do
  {
    /*<<<DD_PWMSP001_API_1_1>>>*/
    if (HandlePtr->DynamicDataType->StateType != PWMSP001_UNINITIALIZED)
    {
      break;
10001892:	46c0      	nop			; (mov r8, r8)

  if (Status != (uint32_t)DAVEApp_SUCCESS)
  {
	DBG002_INFO(APP_GID, DBG002_MESSAGEID_LITERAL, PWMSP001_STATUS_LEN, &Status);
  }
  return Status;
10001894:	68fb      	ldr	r3, [r7, #12]
}
10001896:	1c18      	adds	r0, r3, #0
10001898:	46bd      	mov	sp, r7
1000189a:	b004      	add	sp, #16
1000189c:	bdb0      	pop	{r4, r5, r7, pc}
1000189e:	46c0      	nop			; (mov r8, r8)
100018a0:	e7f3ffff 	.word	0xe7f3ffff
100018a4:	9ecfffff 	.word	0x9ecfffff
100018a8:	fffdffff 	.word	0xfffdffff
100018ac:	ffff98f6 	.word	0xffff98f6
100018b0:	ffdfffff 	.word	0xffdfffff
100018b4:	ffbfffff 	.word	0xffbfffff
100018b8:	00000f0f 	.word	0x00000f0f

100018bc <PWMSP001_Deinit>:

/*<<<DD_PWMSP001_API_2>>>*/
/* This function de-initializes the app */
status_t PWMSP001_Deinit(const PWMSP001_HandleType* HandlePtr)
{
100018bc:	b590      	push	{r4, r7, lr}
100018be:	b089      	sub	sp, #36	; 0x24
100018c0:	af00      	add	r7, sp, #0
100018c2:	6078      	str	r0, [r7, #4]
  status_t Status = (uint32_t)PWMSP001_OPER_NOT_ALLOWED_ERROR;
100018c4:	2301      	movs	r3, #1
100018c6:	61fb      	str	r3, [r7, #28]
  uint32_t Temp2;
  uint32_t Temp3;
  uint32_t Temp4;

     /*<<<DD_PWMSP001_API_2_1>>>*/
    if (HandlePtr->DynamicDataType->StateType != PWMSP001_UNINITIALIZED)
100018c8:	687b      	ldr	r3, [r7, #4]
100018ca:	6bdb      	ldr	r3, [r3, #60]	; 0x3c
100018cc:	781b      	ldrb	r3, [r3, #0]
100018ce:	2b00      	cmp	r3, #0
100018d0:	d100      	bne.n	100018d4 <PWMSP001_Deinit+0x18>
100018d2:	e091      	b.n	100019f8 <PWMSP001_Deinit+0x13c>
    {
    /*<<<DD_PWMSP001_API_2_3>>>*/
    HandlePtr->CC4yRegsPtr->TCCLR = PWMSP001_SLICE_CLEAR;
100018d4:	687b      	ldr	r3, [r7, #4]
100018d6:	699b      	ldr	r3, [r3, #24]
100018d8:	2207      	movs	r2, #7
100018da:	611a      	str	r2, [r3, #16]
    HandlePtr->CC4yRegsPtr->SWR = PWMSP001_ALL_CCU4_INTR_CLEAR;
100018dc:	687b      	ldr	r3, [r7, #4]
100018de:	699a      	ldr	r2, [r3, #24]
100018e0:	23b0      	movs	r3, #176	; 0xb0
100018e2:	4948      	ldr	r1, [pc, #288]	; (10001a04 <PWMSP001_Deinit+0x148>)
100018e4:	50d1      	str	r1, [r2, r3]
    HandlePtr->CC4yRegsPtr->INTE = 0x00U;
100018e6:	687b      	ldr	r3, [r7, #4]
100018e8:	699a      	ldr	r2, [r3, #24]
100018ea:	23a4      	movs	r3, #164	; 0xa4
100018ec:	2100      	movs	r1, #0
100018ee:	50d1      	str	r1, [r2, r3]

    /*Set IDLE mode for selected slice*/
    HandlePtr->CC4yKernRegsPtr->GIDLS |= (((uint32_t)1<< ((uint32_t)CCU4_GIDLS_SS0I_Pos \
100018f0:	687b      	ldr	r3, [r7, #4]
100018f2:	695b      	ldr	r3, [r3, #20]
100018f4:	687a      	ldr	r2, [r7, #4]
100018f6:	6952      	ldr	r2, [r2, #20]
100018f8:	6891      	ldr	r1, [r2, #8]
	  +(uint32_t)HandlePtr->FirstSlice)) | ((uint32_t)1 << (uint32_t)CCU4_GIDLS_CPRB_Pos)\
100018fa:	6878      	ldr	r0, [r7, #4]
100018fc:	2237      	movs	r2, #55	; 0x37
100018fe:	5c82      	ldrb	r2, [r0, r2]
    HandlePtr->CC4yRegsPtr->TCCLR = PWMSP001_SLICE_CLEAR;
    HandlePtr->CC4yRegsPtr->SWR = PWMSP001_ALL_CCU4_INTR_CLEAR;
    HandlePtr->CC4yRegsPtr->INTE = 0x00U;

    /*Set IDLE mode for selected slice*/
    HandlePtr->CC4yKernRegsPtr->GIDLS |= (((uint32_t)1<< ((uint32_t)CCU4_GIDLS_SS0I_Pos \
10001900:	2001      	movs	r0, #1
10001902:	1c04      	adds	r4, r0, #0
10001904:	4094      	lsls	r4, r2
10001906:	1c22      	adds	r2, r4, #0
10001908:	430a      	orrs	r2, r1
1000190a:	21c0      	movs	r1, #192	; 0xc0
1000190c:	0089      	lsls	r1, r1, #2
1000190e:	430a      	orrs	r2, r1
10001910:	609a      	str	r2, [r3, #8]
	  +(uint32_t)HandlePtr->FirstSlice)) | ((uint32_t)1 << (uint32_t)CCU4_GIDLS_CPRB_Pos)\
	    |((uint32_t)1 << (uint32_t)CCU4_GIDLS_PSIC_Pos));

    /*Clear all the registers*/
    HandlePtr->CC4yRegsPtr->INS = 0x00U;
10001912:	687b      	ldr	r3, [r7, #4]
10001914:	699b      	ldr	r3, [r3, #24]
10001916:	2200      	movs	r2, #0
10001918:	601a      	str	r2, [r3, #0]
    HandlePtr->CC4yRegsPtr->CMC = 0x00U;
1000191a:	687b      	ldr	r3, [r7, #4]
1000191c:	699b      	ldr	r3, [r3, #24]
1000191e:	2200      	movs	r2, #0
10001920:	605a      	str	r2, [r3, #4]
    HandlePtr->CC4yRegsPtr->TC = 0x00U;
10001922:	687b      	ldr	r3, [r7, #4]
10001924:	699b      	ldr	r3, [r3, #24]
10001926:	2200      	movs	r2, #0
10001928:	615a      	str	r2, [r3, #20]
    HandlePtr->CC4yRegsPtr->PSC = 0x00U;
1000192a:	687b      	ldr	r3, [r7, #4]
1000192c:	699b      	ldr	r3, [r3, #24]
1000192e:	2200      	movs	r2, #0
10001930:	625a      	str	r2, [r3, #36]	; 0x24
    HandlePtr->CC4yRegsPtr->PSL = 0x00U;
10001932:	687b      	ldr	r3, [r7, #4]
10001934:	699b      	ldr	r3, [r3, #24]
10001936:	2200      	movs	r2, #0
10001938:	619a      	str	r2, [r3, #24]
    HandlePtr->CC4yRegsPtr->DITS = 0x00U;
1000193a:	687b      	ldr	r3, [r7, #4]
1000193c:	699b      	ldr	r3, [r3, #24]
1000193e:	2200      	movs	r2, #0
10001940:	621a      	str	r2, [r3, #32]
    HandlePtr->CC4yRegsPtr->CRS = 0x00U;
10001942:	687b      	ldr	r3, [r7, #4]
10001944:	699b      	ldr	r3, [r3, #24]
10001946:	2200      	movs	r2, #0
10001948:	63da      	str	r2, [r3, #60]	; 0x3c
    HandlePtr->CC4yRegsPtr->PRS = 0x00U;
1000194a:	687b      	ldr	r3, [r7, #4]
1000194c:	699b      	ldr	r3, [r3, #24]
1000194e:	2200      	movs	r2, #0
10001950:	635a      	str	r2, [r3, #52]	; 0x34

    /*<<<DD_PWMSP001_API_2_2>>>*/
    if (HandlePtr->kTimerConcatenation == (uint8_t)SET)
10001952:	687a      	ldr	r2, [r7, #4]
10001954:	2320      	movs	r3, #32
10001956:	5cd3      	ldrb	r3, [r2, r3]
10001958:	2b01      	cmp	r3, #1
1000195a:	d147      	bne.n	100019ec <PWMSP001_Deinit+0x130>
    {
      /*<<<DD_PWMSP001_API_2_3>>>*/
      HandlePtr->CC4yRegs1Ptr->TCCLR = PWMSP001_SLICE_CLEAR;
1000195c:	687b      	ldr	r3, [r7, #4]
1000195e:	69db      	ldr	r3, [r3, #28]
10001960:	2207      	movs	r2, #7
10001962:	611a      	str	r2, [r3, #16]
      HandlePtr->CC4yRegs1Ptr->SWR = PWMSP001_ALL_CCU4_INTR_CLEAR;
10001964:	687b      	ldr	r3, [r7, #4]
10001966:	69da      	ldr	r2, [r3, #28]
10001968:	23b0      	movs	r3, #176	; 0xb0
1000196a:	4926      	ldr	r1, [pc, #152]	; (10001a04 <PWMSP001_Deinit+0x148>)
1000196c:	50d1      	str	r1, [r2, r3]
      HandlePtr->CC4yRegs1Ptr->INTE = 0x00U;
1000196e:	687b      	ldr	r3, [r7, #4]
10001970:	69da      	ldr	r2, [r3, #28]
10001972:	23a4      	movs	r3, #164	; 0xa4
10001974:	2100      	movs	r1, #0
10001976:	50d1      	str	r1, [r2, r3]

      /*Set IDLE mode for selected slice*/
      Temp4 = ((uint32_t)0x01 << (uint32_t)CCU4_GIDLS_PSIC_Pos);
10001978:	2380      	movs	r3, #128	; 0x80
1000197a:	009b      	lsls	r3, r3, #2
1000197c:	61bb      	str	r3, [r7, #24]
      Temp3 = ((uint32_t)0x01 << CCU4_GIDLS_CPRB_Pos);
1000197e:	2380      	movs	r3, #128	; 0x80
10001980:	005b      	lsls	r3, r3, #1
10001982:	617b      	str	r3, [r7, #20]
      Temp2 = ((uint32_t)CCU4_GIDLS_SS0I_Pos + (uint32_t)HandlePtr->SecondSlice);
10001984:	687a      	ldr	r2, [r7, #4]
10001986:	2338      	movs	r3, #56	; 0x38
10001988:	5cd3      	ldrb	r3, [r2, r3]
1000198a:	613b      	str	r3, [r7, #16]
      Temp1 = Temp3 | Temp4;
1000198c:	697a      	ldr	r2, [r7, #20]
1000198e:	69bb      	ldr	r3, [r7, #24]
10001990:	4313      	orrs	r3, r2
10001992:	60fb      	str	r3, [r7, #12]
      HandlePtr->CC4yKernRegsPtr->GIDLS |= (uint32_t)(((uint32_t)0x01 << Temp2 ) | Temp1);
10001994:	687b      	ldr	r3, [r7, #4]
10001996:	695b      	ldr	r3, [r3, #20]
10001998:	687a      	ldr	r2, [r7, #4]
1000199a:	6952      	ldr	r2, [r2, #20]
1000199c:	6891      	ldr	r1, [r2, #8]
1000199e:	693a      	ldr	r2, [r7, #16]
100019a0:	2001      	movs	r0, #1
100019a2:	4090      	lsls	r0, r2
100019a4:	68fa      	ldr	r2, [r7, #12]
100019a6:	4302      	orrs	r2, r0
100019a8:	430a      	orrs	r2, r1
100019aa:	609a      	str	r2, [r3, #8]
      /*   Temp3 | Temp4 ); */

      /*Clear all the registers*/
      HandlePtr->CC4yRegs1Ptr->INS = 0x00U;
100019ac:	687b      	ldr	r3, [r7, #4]
100019ae:	69db      	ldr	r3, [r3, #28]
100019b0:	2200      	movs	r2, #0
100019b2:	601a      	str	r2, [r3, #0]
      HandlePtr->CC4yRegs1Ptr->CMC = 0x00U;
100019b4:	687b      	ldr	r3, [r7, #4]
100019b6:	69db      	ldr	r3, [r3, #28]
100019b8:	2200      	movs	r2, #0
100019ba:	605a      	str	r2, [r3, #4]
      HandlePtr->CC4yRegs1Ptr->TC = 0x00U;
100019bc:	687b      	ldr	r3, [r7, #4]
100019be:	69db      	ldr	r3, [r3, #28]
100019c0:	2200      	movs	r2, #0
100019c2:	615a      	str	r2, [r3, #20]
      HandlePtr->CC4yRegs1Ptr->PSC = 0x00U;
100019c4:	687b      	ldr	r3, [r7, #4]
100019c6:	69db      	ldr	r3, [r3, #28]
100019c8:	2200      	movs	r2, #0
100019ca:	625a      	str	r2, [r3, #36]	; 0x24
      HandlePtr->CC4yRegs1Ptr->PSL = 0x00U;
100019cc:	687b      	ldr	r3, [r7, #4]
100019ce:	69db      	ldr	r3, [r3, #28]
100019d0:	2200      	movs	r2, #0
100019d2:	619a      	str	r2, [r3, #24]
      HandlePtr->CC4yRegs1Ptr->DITS = 0x00U;
100019d4:	687b      	ldr	r3, [r7, #4]
100019d6:	69db      	ldr	r3, [r3, #28]
100019d8:	2200      	movs	r2, #0
100019da:	621a      	str	r2, [r3, #32]
      HandlePtr->CC4yRegs1Ptr->CRS = 0x00U;
100019dc:	687b      	ldr	r3, [r7, #4]
100019de:	69db      	ldr	r3, [r3, #28]
100019e0:	2200      	movs	r2, #0
100019e2:	63da      	str	r2, [r3, #60]	; 0x3c
      HandlePtr->CC4yRegs1Ptr->PRS = 0x00U;
100019e4:	687b      	ldr	r3, [r7, #4]
100019e6:	69db      	ldr	r3, [r3, #28]
100019e8:	2200      	movs	r2, #0
100019ea:	635a      	str	r2, [r3, #52]	; 0x34
    }/*End of if (HandlePtr->kTimerConcatenation == (uint8_t)SET)*/

    HandlePtr->DynamicDataType->StateType = PWMSP001_UNINITIALIZED;
100019ec:	687b      	ldr	r3, [r7, #4]
100019ee:	6bdb      	ldr	r3, [r3, #60]	; 0x3c
100019f0:	2200      	movs	r2, #0
100019f2:	701a      	strb	r2, [r3, #0]

    Status = (uint32_t)DAVEApp_SUCCESS;
100019f4:	2300      	movs	r3, #0
100019f6:	61fb      	str	r3, [r7, #28]

  if (Status != (uint32_t)DAVEApp_SUCCESS)
  {
	DBG002_INFO(APP_GID, DBG002_MESSAGEID_LITERAL, PWMSP001_STATUS_LEN, &Status);
  }
  return Status;
100019f8:	69fb      	ldr	r3, [r7, #28]
}
100019fa:	1c18      	adds	r0, r3, #0
100019fc:	46bd      	mov	sp, r7
100019fe:	b009      	add	sp, #36	; 0x24
10001a00:	bd90      	pop	{r4, r7, pc}
10001a02:	46c0      	nop			; (mov r8, r8)
10001a04:	00000f0f 	.word	0x00000f0f

10001a08 <PWMSP001_Start>:

/*<<<DD_PWMSP001_API_3>>>*/
/* This function starts the app. 
 * This needs to be called even if external start is configured.*/
status_t PWMSP001_Start(const PWMSP001_HandleType* HandlePtr)
{
10001a08:	b590      	push	{r4, r7, lr}
10001a0a:	b085      	sub	sp, #20
10001a0c:	af00      	add	r7, sp, #0
10001a0e:	6078      	str	r0, [r7, #4]
  status_t Status = (uint32_t)PWMSP001_OPER_NOT_ALLOWED_ERROR;
10001a10:	2301      	movs	r3, #1
10001a12:	60fb      	str	r3, [r7, #12]

  do
  {
    /*<<<DD_PWMSP001_API_3_1>>>*/
    if ((HandlePtr->DynamicDataType->StateType != PWMSP001_INITIALIZED) &&
10001a14:	687b      	ldr	r3, [r7, #4]
10001a16:	6bdb      	ldr	r3, [r3, #60]	; 0x3c
10001a18:	781b      	ldrb	r3, [r3, #0]
10001a1a:	2b01      	cmp	r3, #1
10001a1c:	d005      	beq.n	10001a2a <PWMSP001_Start+0x22>
        (HandlePtr->DynamicDataType->StateType != PWMSP001_STOPPED))
10001a1e:	687b      	ldr	r3, [r7, #4]
10001a20:	6bdb      	ldr	r3, [r3, #60]	; 0x3c
10001a22:	781b      	ldrb	r3, [r3, #0]
  status_t Status = (uint32_t)PWMSP001_OPER_NOT_ALLOWED_ERROR;

  do
  {
    /*<<<DD_PWMSP001_API_3_1>>>*/
    if ((HandlePtr->DynamicDataType->StateType != PWMSP001_INITIALIZED) &&
10001a24:	2b03      	cmp	r3, #3
10001a26:	d000      	beq.n	10001a2a <PWMSP001_Start+0x22>
10001a28:	e09f      	b.n	10001b6a <PWMSP001_Start+0x162>
    {
      DBG002_INFO(APP_GID, DBG002_MESSAGEID_LITERAL, PWMSP001_STATUS_LEN, &Status);
      break;
    }

    HandlePtr->CC4yRegsPtr->SWR = PWMSP001_ALL_CCU4_INTR_CLEAR;
10001a2a:	687b      	ldr	r3, [r7, #4]
10001a2c:	699a      	ldr	r2, [r3, #24]
10001a2e:	23b0      	movs	r3, #176	; 0xb0
10001a30:	4951      	ldr	r1, [pc, #324]	; (10001b78 <PWMSP001_Start+0x170>)
10001a32:	50d1      	str	r1, [r2, r3]
    
    /*<<<DD_PWMSP001_API_3_2>>>*/
	HandlePtr->CC4yKernRegsPtr->GIDLC |=
10001a34:	687b      	ldr	r3, [r7, #4]
10001a36:	695b      	ldr	r3, [r3, #20]
10001a38:	687a      	ldr	r2, [r7, #4]
10001a3a:	6952      	ldr	r2, [r2, #20]
10001a3c:	68d1      	ldr	r1, [r2, #12]
		(((uint32_t)1 << ((uint32_t)CCU4_GIDLC_CS0I_Pos + \
			(uint32_t)HandlePtr->FirstSlice)) );
10001a3e:	6878      	ldr	r0, [r7, #4]
10001a40:	2237      	movs	r2, #55	; 0x37
10001a42:	5c82      	ldrb	r2, [r0, r2]

    HandlePtr->CC4yRegsPtr->SWR = PWMSP001_ALL_CCU4_INTR_CLEAR;
    
    /*<<<DD_PWMSP001_API_3_2>>>*/
	HandlePtr->CC4yKernRegsPtr->GIDLC |=
		(((uint32_t)1 << ((uint32_t)CCU4_GIDLC_CS0I_Pos + \
10001a44:	2001      	movs	r0, #1
10001a46:	1c04      	adds	r4, r0, #0
10001a48:	4094      	lsls	r4, r2
10001a4a:	1c22      	adds	r2, r4, #0
    }

    HandlePtr->CC4yRegsPtr->SWR = PWMSP001_ALL_CCU4_INTR_CLEAR;
    
    /*<<<DD_PWMSP001_API_3_2>>>*/
	HandlePtr->CC4yKernRegsPtr->GIDLC |=
10001a4c:	430a      	orrs	r2, r1
10001a4e:	60da      	str	r2, [r3, #12]
		(((uint32_t)1 << ((uint32_t)CCU4_GIDLC_CS0I_Pos + \
			(uint32_t)HandlePtr->FirstSlice)) );
	if (HandlePtr->kTimerConcatenation == (uint8_t)SET)
10001a50:	687a      	ldr	r2, [r7, #4]
10001a52:	2320      	movs	r3, #32
10001a54:	5cd3      	ldrb	r3, [r2, r3]
10001a56:	2b01      	cmp	r3, #1
10001a58:	d10d      	bne.n	10001a76 <PWMSP001_Start+0x6e>
	{
	  HandlePtr->CC4yKernRegsPtr->GIDLC |=
10001a5a:	687b      	ldr	r3, [r7, #4]
10001a5c:	695b      	ldr	r3, [r3, #20]
10001a5e:	687a      	ldr	r2, [r7, #4]
10001a60:	6952      	ldr	r2, [r2, #20]
10001a62:	68d1      	ldr	r1, [r2, #12]
		  ((uint32_t)1 << ((uint32_t)CCU4_GIDLC_CS0I_Pos + \
			(uint32_t)HandlePtr->SecondSlice));
10001a64:	6878      	ldr	r0, [r7, #4]
10001a66:	2238      	movs	r2, #56	; 0x38
10001a68:	5c82      	ldrb	r2, [r0, r2]
		(((uint32_t)1 << ((uint32_t)CCU4_GIDLC_CS0I_Pos + \
			(uint32_t)HandlePtr->FirstSlice)) );
	if (HandlePtr->kTimerConcatenation == (uint8_t)SET)
	{
	  HandlePtr->CC4yKernRegsPtr->GIDLC |=
		  ((uint32_t)1 << ((uint32_t)CCU4_GIDLC_CS0I_Pos + \
10001a6a:	2001      	movs	r0, #1
10001a6c:	1c04      	adds	r4, r0, #0
10001a6e:	4094      	lsls	r4, r2
10001a70:	1c22      	adds	r2, r4, #0
	HandlePtr->CC4yKernRegsPtr->GIDLC |=
		(((uint32_t)1 << ((uint32_t)CCU4_GIDLC_CS0I_Pos + \
			(uint32_t)HandlePtr->FirstSlice)) );
	if (HandlePtr->kTimerConcatenation == (uint8_t)SET)
	{
	  HandlePtr->CC4yKernRegsPtr->GIDLC |=
10001a72:	430a      	orrs	r2, r1
10001a74:	60da      	str	r2, [r3, #12]
		  ((uint32_t)1 << ((uint32_t)CCU4_GIDLC_CS0I_Pos + \
			(uint32_t)HandlePtr->SecondSlice));
	} /*End if (HandlePtr->kTimerConcatenation == SET)*/
	
    /*Set run bit of slices if external start is not configured*/
    if (HandlePtr->kExtStartTrig == (uint8_t)RESET)
10001a76:	687b      	ldr	r3, [r7, #4]
10001a78:	7b9b      	ldrb	r3, [r3, #14]
10001a7a:	2b00      	cmp	r3, #0
10001a7c:	d115      	bne.n	10001aaa <PWMSP001_Start+0xa2>
    {
      HandlePtr->CC4yRegsPtr->TCSET |= (uint32_t)1;
10001a7e:	687b      	ldr	r3, [r7, #4]
10001a80:	699b      	ldr	r3, [r3, #24]
10001a82:	687a      	ldr	r2, [r7, #4]
10001a84:	6992      	ldr	r2, [r2, #24]
10001a86:	68d2      	ldr	r2, [r2, #12]
10001a88:	2101      	movs	r1, #1
10001a8a:	430a      	orrs	r2, r1
10001a8c:	60da      	str	r2, [r3, #12]
      if (HandlePtr->kTimerConcatenation == (uint8_t)SET)
10001a8e:	687a      	ldr	r2, [r7, #4]
10001a90:	2320      	movs	r3, #32
10001a92:	5cd3      	ldrb	r3, [r2, r3]
10001a94:	2b01      	cmp	r3, #1
10001a96:	d161      	bne.n	10001b5c <PWMSP001_Start+0x154>
      {
        HandlePtr->CC4yRegs1Ptr->TCSET |= (uint32_t)1;
10001a98:	687b      	ldr	r3, [r7, #4]
10001a9a:	69db      	ldr	r3, [r3, #28]
10001a9c:	687a      	ldr	r2, [r7, #4]
10001a9e:	69d2      	ldr	r2, [r2, #28]
10001aa0:	68d2      	ldr	r2, [r2, #12]
10001aa2:	2101      	movs	r1, #1
10001aa4:	430a      	orrs	r2, r1
10001aa6:	60da      	str	r2, [r3, #12]
10001aa8:	e058      	b.n	10001b5c <PWMSP001_Start+0x154>
      }
    }/*End of  if (HandlePtr->kExtStartTrig == (uint8_t)RESET)*/
    else
    {
      /*<<<DD_PWMSP001_API_1_2>>>*/
      if (HandlePtr->kExtStartTrig == (uint8_t)SET)
10001aaa:	687b      	ldr	r3, [r7, #4]
10001aac:	7b9b      	ldrb	r3, [r3, #14]
10001aae:	2b01      	cmp	r3, #1
10001ab0:	d125      	bne.n	10001afe <PWMSP001_Start+0xf6>
      {
        HandlePtr->CC4yRegsPtr->INS &= ~((uint32_t)CCU4_CC4_INS_EV0EM_Msk | \
10001ab2:	687b      	ldr	r3, [r7, #4]
10001ab4:	699b      	ldr	r3, [r3, #24]
10001ab6:	687a      	ldr	r2, [r7, #4]
10001ab8:	6992      	ldr	r2, [r2, #24]
10001aba:	6811      	ldr	r1, [r2, #0]
10001abc:	4a2f      	ldr	r2, [pc, #188]	; (10001b7c <PWMSP001_Start+0x174>)
10001abe:	400a      	ands	r2, r1
10001ac0:	601a      	str	r2, [r3, #0]
		  (uint32_t)CCU4_CC4_INS_LPF0M_Msk);
        HandlePtr->CC4yRegsPtr->CMC &= ~(uint32_t)CCU4_CC4_CMC_STRTS_Msk;
10001ac2:	687b      	ldr	r3, [r7, #4]
10001ac4:	699b      	ldr	r3, [r3, #24]
10001ac6:	687a      	ldr	r2, [r7, #4]
10001ac8:	6992      	ldr	r2, [r2, #24]
10001aca:	6852      	ldr	r2, [r2, #4]
10001acc:	2103      	movs	r1, #3
10001ace:	438a      	bics	r2, r1
10001ad0:	605a      	str	r2, [r3, #4]
        HandlePtr->CC4yRegsPtr->INS |=
10001ad2:	687b      	ldr	r3, [r7, #4]
10001ad4:	699b      	ldr	r3, [r3, #24]
10001ad6:	687a      	ldr	r2, [r7, #4]
10001ad8:	6992      	ldr	r2, [r2, #24]
10001ada:	6811      	ldr	r1, [r2, #0]
            ((((uint32_t)HandlePtr->kStartEdge  << (uint32_t)CCU4_CC4_INS_EV0EM_Pos)& \
10001adc:	6878      	ldr	r0, [r7, #4]
10001ade:	2223      	movs	r2, #35	; 0x23
10001ae0:	5c82      	ldrb	r2, [r0, r2]
10001ae2:	0410      	lsls	r0, r2, #16
			  (uint32_t)CCU4_CC4_INS_EV0EM_Msk) | (((uint32_t)PWMSP001_LPF   << \
10001ae4:	22c0      	movs	r2, #192	; 0xc0
10001ae6:	0292      	lsls	r2, r2, #10
10001ae8:	4002      	ands	r2, r0
      if (HandlePtr->kExtStartTrig == (uint8_t)SET)
      {
        HandlePtr->CC4yRegsPtr->INS &= ~((uint32_t)CCU4_CC4_INS_EV0EM_Msk | \
		  (uint32_t)CCU4_CC4_INS_LPF0M_Msk);
        HandlePtr->CC4yRegsPtr->CMC &= ~(uint32_t)CCU4_CC4_CMC_STRTS_Msk;
        HandlePtr->CC4yRegsPtr->INS |=
10001aea:	430a      	orrs	r2, r1
10001aec:	601a      	str	r2, [r3, #0]
            ((((uint32_t)HandlePtr->kStartEdge  << (uint32_t)CCU4_CC4_INS_EV0EM_Pos)& \
			  (uint32_t)CCU4_CC4_INS_EV0EM_Msk) | (((uint32_t)PWMSP001_LPF   << \
                (uint32_t)CCU4_CC4_INS_LPF0M_Pos)& (uint32_t)CCU4_CC4_INS_LPF0M_Msk));
        HandlePtr->CC4yRegsPtr->CMC |= (((uint32_t)PWMSP001_EVENT_0  <<
10001aee:	687b      	ldr	r3, [r7, #4]
10001af0:	699b      	ldr	r3, [r3, #24]
10001af2:	687a      	ldr	r2, [r7, #4]
10001af4:	6992      	ldr	r2, [r2, #24]
10001af6:	6852      	ldr	r2, [r2, #4]
10001af8:	2101      	movs	r1, #1
10001afa:	430a      	orrs	r2, r1
10001afc:	605a      	str	r2, [r3, #4]
            (uint32_t)CCU4_CC4_CMC_STRTS_Pos)& (uint32_t)CCU4_CC4_CMC_STRTS_Msk);
      }/*End of if (HandlePtr->kExtStartTrig == (uint8_t)SET)*/
      /*<<<DD_PWMSP001_nonAPI_1_2>>>*/
      if ((HandlePtr->kExtStartTrig == (uint8_t)SET) &&\
10001afe:	687b      	ldr	r3, [r7, #4]
10001b00:	7b9b      	ldrb	r3, [r3, #14]
10001b02:	2b01      	cmp	r3, #1
10001b04:	d12a      	bne.n	10001b5c <PWMSP001_Start+0x154>
          (HandlePtr->kTimerConcatenation == (uint8_t)SET)
10001b06:	687a      	ldr	r2, [r7, #4]
10001b08:	2320      	movs	r3, #32
10001b0a:	5cd3      	ldrb	r3, [r2, r3]
                (uint32_t)CCU4_CC4_INS_LPF0M_Pos)& (uint32_t)CCU4_CC4_INS_LPF0M_Msk));
        HandlePtr->CC4yRegsPtr->CMC |= (((uint32_t)PWMSP001_EVENT_0  <<
            (uint32_t)CCU4_CC4_CMC_STRTS_Pos)& (uint32_t)CCU4_CC4_CMC_STRTS_Msk);
      }/*End of if (HandlePtr->kExtStartTrig == (uint8_t)SET)*/
      /*<<<DD_PWMSP001_nonAPI_1_2>>>*/
      if ((HandlePtr->kExtStartTrig == (uint8_t)SET) &&\
10001b0c:	2b01      	cmp	r3, #1
10001b0e:	d125      	bne.n	10001b5c <PWMSP001_Start+0x154>
          (HandlePtr->kTimerConcatenation == (uint8_t)SET)
      )
      {
        HandlePtr->CC4yRegs1Ptr->INS &= (uint32_t)~(CCU4_CC4_INS_EV0EM_Msk | CCU4_CC4_INS_LPF0M_Msk);
10001b10:	687b      	ldr	r3, [r7, #4]
10001b12:	69db      	ldr	r3, [r3, #28]
10001b14:	687a      	ldr	r2, [r7, #4]
10001b16:	69d2      	ldr	r2, [r2, #28]
10001b18:	6811      	ldr	r1, [r2, #0]
10001b1a:	4a18      	ldr	r2, [pc, #96]	; (10001b7c <PWMSP001_Start+0x174>)
10001b1c:	400a      	ands	r2, r1
10001b1e:	601a      	str	r2, [r3, #0]
        HandlePtr->CC4yRegs1Ptr->CMC &= (uint32_t)~(CCU4_CC4_CMC_STRTS_Msk);
10001b20:	687b      	ldr	r3, [r7, #4]
10001b22:	69db      	ldr	r3, [r3, #28]
10001b24:	687a      	ldr	r2, [r7, #4]
10001b26:	69d2      	ldr	r2, [r2, #28]
10001b28:	6852      	ldr	r2, [r2, #4]
10001b2a:	2103      	movs	r1, #3
10001b2c:	438a      	bics	r2, r1
10001b2e:	605a      	str	r2, [r3, #4]
        HandlePtr->CC4yRegs1Ptr->INS |=
10001b30:	687b      	ldr	r3, [r7, #4]
10001b32:	69db      	ldr	r3, [r3, #28]
10001b34:	687a      	ldr	r2, [r7, #4]
10001b36:	69d2      	ldr	r2, [r2, #28]
10001b38:	6811      	ldr	r1, [r2, #0]
            ((((uint32_t)HandlePtr->kStartEdge  << (uint32_t)CCU4_CC4_INS_EV0EM_Pos)& \
10001b3a:	6878      	ldr	r0, [r7, #4]
10001b3c:	2223      	movs	r2, #35	; 0x23
10001b3e:	5c82      	ldrb	r2, [r0, r2]
10001b40:	0410      	lsls	r0, r2, #16
			  (uint32_t)CCU4_CC4_INS_EV0EM_Msk) | (((uint32_t)PWMSP001_LPF  <<
10001b42:	22c0      	movs	r2, #192	; 0xc0
10001b44:	0292      	lsls	r2, r2, #10
10001b46:	4002      	ands	r2, r0
          (HandlePtr->kTimerConcatenation == (uint8_t)SET)
      )
      {
        HandlePtr->CC4yRegs1Ptr->INS &= (uint32_t)~(CCU4_CC4_INS_EV0EM_Msk | CCU4_CC4_INS_LPF0M_Msk);
        HandlePtr->CC4yRegs1Ptr->CMC &= (uint32_t)~(CCU4_CC4_CMC_STRTS_Msk);
        HandlePtr->CC4yRegs1Ptr->INS |=
10001b48:	430a      	orrs	r2, r1
10001b4a:	601a      	str	r2, [r3, #0]
            ((((uint32_t)HandlePtr->kStartEdge  << (uint32_t)CCU4_CC4_INS_EV0EM_Pos)& \
			  (uint32_t)CCU4_CC4_INS_EV0EM_Msk) | (((uint32_t)PWMSP001_LPF  <<
                    (uint32_t)CCU4_CC4_INS_LPF0M_Pos)& (uint32_t)CCU4_CC4_INS_LPF0M_Msk));
        HandlePtr->CC4yRegs1Ptr->CMC |= (((uint32_t)PWMSP001_EVENT_0  << \
10001b4c:	687b      	ldr	r3, [r7, #4]
10001b4e:	69db      	ldr	r3, [r3, #28]
10001b50:	687a      	ldr	r2, [r7, #4]
10001b52:	69d2      	ldr	r2, [r2, #28]
10001b54:	6852      	ldr	r2, [r2, #4]
10001b56:	2101      	movs	r1, #1
10001b58:	430a      	orrs	r2, r1
10001b5a:	605a      	str	r2, [r3, #4]
		  (uint32_t)CCU4_CC4_CMC_STRTS_Pos) & (uint32_t)CCU4_CC4_CMC_STRTS_Msk);
      }/*End of if (HandlePtr->kExtStartTrig == SET)*/
    }

    HandlePtr->DynamicDataType->StateType = PWMSP001_RUNNING;
10001b5c:	687b      	ldr	r3, [r7, #4]
10001b5e:	6bdb      	ldr	r3, [r3, #60]	; 0x3c
10001b60:	2202      	movs	r2, #2
10001b62:	701a      	strb	r2, [r3, #0]
    Status = (uint32_t)DAVEApp_SUCCESS;
10001b64:	2300      	movs	r3, #0
10001b66:	60fb      	str	r3, [r7, #12]
10001b68:	e000      	b.n	10001b6c <PWMSP001_Start+0x164>
    /*<<<DD_PWMSP001_API_3_1>>>*/
    if ((HandlePtr->DynamicDataType->StateType != PWMSP001_INITIALIZED) &&
        (HandlePtr->DynamicDataType->StateType != PWMSP001_STOPPED))
    {
      DBG002_INFO(APP_GID, DBG002_MESSAGEID_LITERAL, PWMSP001_STATUS_LEN, &Status);
      break;
10001b6a:	46c0      	nop			; (mov r8, r8)
    }

    HandlePtr->DynamicDataType->StateType = PWMSP001_RUNNING;
    Status = (uint32_t)DAVEApp_SUCCESS;
  } while (0);
  return Status;
10001b6c:	68fb      	ldr	r3, [r7, #12]
}
10001b6e:	1c18      	adds	r0, r3, #0
10001b70:	46bd      	mov	sp, r7
10001b72:	b005      	add	sp, #20
10001b74:	bd90      	pop	{r4, r7, pc}
10001b76:	46c0      	nop			; (mov r8, r8)
10001b78:	00000f0f 	.word	0x00000f0f
10001b7c:	f9fcffff 	.word	0xf9fcffff

10001b80 <PWMSP001_Stop>:

/*<<<DD_PWMSP001_API_4>>>*/
/* This function stops the app */
status_t PWMSP001_Stop(const PWMSP001_HandleType* HandlePtr)
{
10001b80:	b580      	push	{r7, lr}
10001b82:	b086      	sub	sp, #24
10001b84:	af00      	add	r7, sp, #0
10001b86:	6078      	str	r0, [r7, #4]
  status_t Status = (uint32_t)PWMSP001_OPER_NOT_ALLOWED_ERROR;
10001b88:	2301      	movs	r3, #1
10001b8a:	617b      	str	r3, [r7, #20]
  uint32_t Temp2;
  
  do
  {
    /*<<<DD_PWMSP001_API_4_1>>>*/
    if (HandlePtr->DynamicDataType->StateType != PWMSP001_RUNNING)
10001b8c:	687b      	ldr	r3, [r7, #4]
10001b8e:	6bdb      	ldr	r3, [r3, #60]	; 0x3c
10001b90:	781b      	ldrb	r3, [r3, #0]
10001b92:	2b02      	cmp	r3, #2
10001b94:	d139      	bne.n	10001c0a <PWMSP001_Stop+0x8a>
    {
      break;
    }
    else
    {
      Temp1 = ((uint32_t)CCU4_GIDLS_SS0I_Pos + (uint32_t)HandlePtr->FirstSlice);
10001b96:	687a      	ldr	r2, [r7, #4]
10001b98:	2337      	movs	r3, #55	; 0x37
10001b9a:	5cd3      	ldrb	r3, [r2, r3]
10001b9c:	613b      	str	r3, [r7, #16]
      Temp2 = ((uint32_t)0x01 << CCU4_GIDLS_PSIC_Pos);
10001b9e:	2380      	movs	r3, #128	; 0x80
10001ba0:	009b      	lsls	r3, r3, #2
10001ba2:	60fb      	str	r3, [r7, #12]
      HandlePtr->CC4yRegsPtr->TCCLR = PWMSP001_SLICE_CLEAR;
10001ba4:	687b      	ldr	r3, [r7, #4]
10001ba6:	699b      	ldr	r3, [r3, #24]
10001ba8:	2207      	movs	r2, #7
10001baa:	611a      	str	r2, [r3, #16]
      HandlePtr->CC4yKernRegsPtr->GIDLS |= (((uint32_t)0x01 << Temp1 ) | Temp2 );
10001bac:	687b      	ldr	r3, [r7, #4]
10001bae:	695b      	ldr	r3, [r3, #20]
10001bb0:	687a      	ldr	r2, [r7, #4]
10001bb2:	6952      	ldr	r2, [r2, #20]
10001bb4:	6891      	ldr	r1, [r2, #8]
10001bb6:	693a      	ldr	r2, [r7, #16]
10001bb8:	2001      	movs	r0, #1
10001bba:	4090      	lsls	r0, r2
10001bbc:	68fa      	ldr	r2, [r7, #12]
10001bbe:	4302      	orrs	r2, r0
10001bc0:	430a      	orrs	r2, r1
10001bc2:	609a      	str	r2, [r3, #8]

      if (HandlePtr->kTimerConcatenation == (uint8_t)SET)
10001bc4:	687a      	ldr	r2, [r7, #4]
10001bc6:	2320      	movs	r3, #32
10001bc8:	5cd3      	ldrb	r3, [r2, r3]
10001bca:	2b01      	cmp	r3, #1
10001bcc:	d116      	bne.n	10001bfc <PWMSP001_Stop+0x7c>
      {
        HandlePtr->CC4yRegs1Ptr->TCCLR = PWMSP001_SLICE_CLEAR;
10001bce:	687b      	ldr	r3, [r7, #4]
10001bd0:	69db      	ldr	r3, [r3, #28]
10001bd2:	2207      	movs	r2, #7
10001bd4:	611a      	str	r2, [r3, #16]
        Temp1 = ((uint32_t)CCU4_GIDLS_SS0I_Pos + (uint32_t)HandlePtr->SecondSlice);
10001bd6:	687a      	ldr	r2, [r7, #4]
10001bd8:	2338      	movs	r3, #56	; 0x38
10001bda:	5cd3      	ldrb	r3, [r2, r3]
10001bdc:	613b      	str	r3, [r7, #16]
        Temp2 = ((uint32_t)0x01 << CCU4_GIDLS_PSIC_Pos);
10001bde:	2380      	movs	r3, #128	; 0x80
10001be0:	009b      	lsls	r3, r3, #2
10001be2:	60fb      	str	r3, [r7, #12]
        HandlePtr->CC4yKernRegsPtr->GIDLS |= (((uint32_t)0x01 << Temp1) | Temp2 );
10001be4:	687b      	ldr	r3, [r7, #4]
10001be6:	695b      	ldr	r3, [r3, #20]
10001be8:	687a      	ldr	r2, [r7, #4]
10001bea:	6952      	ldr	r2, [r2, #20]
10001bec:	6891      	ldr	r1, [r2, #8]
10001bee:	693a      	ldr	r2, [r7, #16]
10001bf0:	2001      	movs	r0, #1
10001bf2:	4090      	lsls	r0, r2
10001bf4:	68fa      	ldr	r2, [r7, #12]
10001bf6:	4302      	orrs	r2, r0
10001bf8:	430a      	orrs	r2, r1
10001bfa:	609a      	str	r2, [r3, #8]
      }/*End of  if (HandlePtr->kTimerConcatenation == (uint8_t)SET)*/

      HandlePtr->DynamicDataType->StateType = PWMSP001_STOPPED;
10001bfc:	687b      	ldr	r3, [r7, #4]
10001bfe:	6bdb      	ldr	r3, [r3, #60]	; 0x3c
10001c00:	2203      	movs	r2, #3
10001c02:	701a      	strb	r2, [r3, #0]
      Status = (uint32_t)DAVEApp_SUCCESS;
10001c04:	2300      	movs	r3, #0
10001c06:	617b      	str	r3, [r7, #20]
10001c08:	e000      	b.n	10001c0c <PWMSP001_Stop+0x8c>
  do
  {
    /*<<<DD_PWMSP001_API_4_1>>>*/
    if (HandlePtr->DynamicDataType->StateType != PWMSP001_RUNNING)
    {
      break;
10001c0a:	46c0      	nop			; (mov r8, r8)

  if (Status != (uint32_t)DAVEApp_SUCCESS)
  {
	DBG002_INFO(APP_GID, DBG002_MESSAGEID_LITERAL, PWMSP001_STATUS_LEN, &Status);
  }
  return Status;
10001c0c:	697b      	ldr	r3, [r7, #20]
}
10001c0e:	1c18      	adds	r0, r3, #0
10001c10:	46bd      	mov	sp, r7
10001c12:	b006      	add	sp, #24
10001c14:	bd80      	pop	{r7, pc}
10001c16:	46c0      	nop			; (mov r8, r8)

10001c18 <PWMSP001_SetCompare>:
status_t PWMSP001_SetCompare
(
    const PWMSP001_HandleType* HandlePtr,
    uint32_t Compare
)
{
10001c18:	b580      	push	{r7, lr}
10001c1a:	b084      	sub	sp, #16
10001c1c:	af00      	add	r7, sp, #0
10001c1e:	6078      	str	r0, [r7, #4]
10001c20:	6039      	str	r1, [r7, #0]
  status_t Status = (uint32_t)PWMSP001_OPER_NOT_ALLOWED_ERROR;
10001c22:	2301      	movs	r3, #1
10001c24:	60fb      	str	r3, [r7, #12]
  uint32_t period;

  if (HandlePtr->kTimerConcatenation == (uint8_t)SET)
10001c26:	687a      	ldr	r2, [r7, #4]
10001c28:	2320      	movs	r3, #32
10001c2a:	5cd3      	ldrb	r3, [r2, r3]
10001c2c:	2b01      	cmp	r3, #1
10001c2e:	d109      	bne.n	10001c44 <PWMSP001_SetCompare+0x2c>
	  period=(uint32_t)(((uint32_t)HandlePtr->CC4yRegs1Ptr->PRS<<16U)|(uint32_t)HandlePtr->CC4yRegsPtr->PRS);
10001c30:	687b      	ldr	r3, [r7, #4]
10001c32:	69db      	ldr	r3, [r3, #28]
10001c34:	6b5b      	ldr	r3, [r3, #52]	; 0x34
10001c36:	041a      	lsls	r2, r3, #16
10001c38:	687b      	ldr	r3, [r7, #4]
10001c3a:	699b      	ldr	r3, [r3, #24]
10001c3c:	6b5b      	ldr	r3, [r3, #52]	; 0x34
10001c3e:	4313      	orrs	r3, r2
10001c40:	60bb      	str	r3, [r7, #8]
10001c42:	e003      	b.n	10001c4c <PWMSP001_SetCompare+0x34>
  else
	  period=(uint32_t)HandlePtr->CC4yRegsPtr->PRS;
10001c44:	687b      	ldr	r3, [r7, #4]
10001c46:	699b      	ldr	r3, [r3, #24]
10001c48:	6b5b      	ldr	r3, [r3, #52]	; 0x34
10001c4a:	60bb      	str	r3, [r7, #8]

  /*<<<DD_PWMSP001_API_5_1>>>*/
  if ( HandlePtr->DynamicDataType->StateType != PWMSP001_UNINITIALIZED)
10001c4c:	687b      	ldr	r3, [r7, #4]
10001c4e:	6bdb      	ldr	r3, [r3, #60]	; 0x3c
10001c50:	781b      	ldrb	r3, [r3, #0]
10001c52:	2b00      	cmp	r3, #0
10001c54:	d01c      	beq.n	10001c90 <PWMSP001_SetCompare+0x78>
  {
    if ((Compare > (uint32_t)HandlePtr->kMaxPeriodVal) &&
10001c56:	687b      	ldr	r3, [r7, #4]
10001c58:	6ada      	ldr	r2, [r3, #44]	; 0x2c
10001c5a:	683b      	ldr	r3, [r7, #0]
10001c5c:	429a      	cmp	r2, r3
10001c5e:	d207      	bcs.n	10001c70 <PWMSP001_SetCompare+0x58>
        (HandlePtr->kTimerConcatenation == (uint8_t)RESET))
10001c60:	687a      	ldr	r2, [r7, #4]
10001c62:	2320      	movs	r3, #32
10001c64:	5cd3      	ldrb	r3, [r2, r3]
	  period=(uint32_t)HandlePtr->CC4yRegsPtr->PRS;

  /*<<<DD_PWMSP001_API_5_1>>>*/
  if ( HandlePtr->DynamicDataType->StateType != PWMSP001_UNINITIALIZED)
  {
    if ((Compare > (uint32_t)HandlePtr->kMaxPeriodVal) &&
10001c66:	2b00      	cmp	r3, #0
10001c68:	d102      	bne.n	10001c70 <PWMSP001_SetCompare+0x58>
        (HandlePtr->kTimerConcatenation == (uint8_t)RESET))
    {
      Status = (uint32_t)PWMSP001_INVALID_PARAM_ERROR;
10001c6a:	2302      	movs	r3, #2
10001c6c:	60fb      	str	r3, [r7, #12]
10001c6e:	e00f      	b.n	10001c90 <PWMSP001_SetCompare+0x78>
    }
    else
    {
      /*if compare value is greater or equal to the period value, output should be with 0% dutycycle.
	  Since setting exact period value will create the spikes,we are adding 1 and setting to the register*/
	  if (Compare >= (uint32_t)period)
10001c70:	683a      	ldr	r2, [r7, #0]
10001c72:	68bb      	ldr	r3, [r7, #8]
10001c74:	429a      	cmp	r2, r3
10001c76:	d302      	bcc.n	10001c7e <PWMSP001_SetCompare+0x66>
	  {
		  Compare = (uint32_t)period + 1U;
10001c78:	68bb      	ldr	r3, [r7, #8]
10001c7a:	3301      	adds	r3, #1
10001c7c:	603b      	str	r3, [r7, #0]
	  }
      /* Call function as per the configured mode */
      HandlePtr->SetCompareFuncPtr((const void*)HandlePtr, Compare);
10001c7e:	687b      	ldr	r3, [r7, #4]
10001c80:	6c1b      	ldr	r3, [r3, #64]	; 0x40
10001c82:	6879      	ldr	r1, [r7, #4]
10001c84:	683a      	ldr	r2, [r7, #0]
10001c86:	1c08      	adds	r0, r1, #0
10001c88:	1c11      	adds	r1, r2, #0
10001c8a:	4798      	blx	r3
      Status = (uint32_t)DAVEApp_SUCCESS;
10001c8c:	2300      	movs	r3, #0
10001c8e:	60fb      	str	r3, [r7, #12]
    }
  }
  return Status;
10001c90:	68fb      	ldr	r3, [r7, #12]
}
10001c92:	1c18      	adds	r0, r3, #0
10001c94:	46bd      	mov	sp, r7
10001c96:	b004      	add	sp, #16
10001c98:	bd80      	pop	{r7, pc}
10001c9a:	46c0      	nop			; (mov r8, r8)

10001c9c <PWMSP001_lSetCompareEdgeAlign>:
void PWMSP001_lSetCompareEdgeAlign
(
    void* Handle,
    uint32_t Compare
)
{
10001c9c:	b590      	push	{r4, r7, lr}
10001c9e:	b087      	sub	sp, #28
10001ca0:	af00      	add	r7, sp, #0
10001ca2:	6078      	str	r0, [r7, #4]
10001ca4:	6039      	str	r1, [r7, #0]
  uint32_t Temp1;
  uint32_t Temp2;
  PWMSP001_HandleType* HandlePtr = (PWMSP001_HandleType*)Handle;
10001ca6:	687b      	ldr	r3, [r7, #4]
10001ca8:	617b      	str	r3, [r7, #20]
  HandlePtr->CC4yRegsPtr->CRS = (Compare & 0xFFFFU);
10001caa:	697b      	ldr	r3, [r7, #20]
10001cac:	699b      	ldr	r3, [r3, #24]
10001cae:	683a      	ldr	r2, [r7, #0]
10001cb0:	0412      	lsls	r2, r2, #16
10001cb2:	0c12      	lsrs	r2, r2, #16
10001cb4:	63da      	str	r2, [r3, #60]	; 0x3c
  
  /* Request shadow transfer */
  Temp2 = (4U*(uint32_t)HandlePtr->FirstSlice);
10001cb6:	697a      	ldr	r2, [r7, #20]
10001cb8:	2337      	movs	r3, #55	; 0x37
10001cba:	5cd3      	ldrb	r3, [r2, r3]
10001cbc:	009b      	lsls	r3, r3, #2
10001cbe:	613b      	str	r3, [r7, #16]
  Temp1 = (uint32_t)CCU4_GCSS_S0SE_Pos + Temp2;
10001cc0:	693b      	ldr	r3, [r7, #16]
10001cc2:	60fb      	str	r3, [r7, #12]
  HandlePtr->CC4yKernRegsPtr->GCSS |= ((uint32_t)0x01 << Temp1);
10001cc4:	697b      	ldr	r3, [r7, #20]
10001cc6:	695b      	ldr	r3, [r3, #20]
10001cc8:	697a      	ldr	r2, [r7, #20]
10001cca:	6952      	ldr	r2, [r2, #20]
10001ccc:	6911      	ldr	r1, [r2, #16]
10001cce:	68fa      	ldr	r2, [r7, #12]
10001cd0:	2001      	movs	r0, #1
10001cd2:	1c04      	adds	r4, r0, #0
10001cd4:	4094      	lsls	r4, r2
10001cd6:	1c22      	adds	r2, r4, #0
10001cd8:	430a      	orrs	r2, r1
10001cda:	611a      	str	r2, [r3, #16]
}
10001cdc:	46bd      	mov	sp, r7
10001cde:	b007      	add	sp, #28
10001ce0:	bd90      	pop	{r4, r7, pc}
10001ce2:	46c0      	nop			; (mov r8, r8)

10001ce4 <PWMSP001_lSetCompareEdgeAlignTimerConcat>:
void PWMSP001_lSetCompareEdgeAlignTimerConcat
(
    void* Handle,
    uint32_t Compare
)
{
10001ce4:	b5b0      	push	{r4, r5, r7, lr}
10001ce6:	b088      	sub	sp, #32
10001ce8:	af00      	add	r7, sp, #0
10001cea:	6078      	str	r0, [r7, #4]
10001cec:	6039      	str	r1, [r7, #0]
  uint32_t FirstSliceCompareVal = 0x00U;
10001cee:	2300      	movs	r3, #0
10001cf0:	61fb      	str	r3, [r7, #28]
  uint32_t SecondSliceCompareVal = 0x00U;
10001cf2:	2300      	movs	r3, #0
10001cf4:	61bb      	str	r3, [r7, #24]
  uint32_t Temp1;
  uint32_t Temp2;
  PWMSP001_HandleType* HandlePtr = (PWMSP001_HandleType*)Handle;
10001cf6:	687b      	ldr	r3, [r7, #4]
10001cf8:	617b      	str	r3, [r7, #20]
   * register of second slice.
   * This is done to achieve compare register value of first slice
   * to be less than period register value.
   */
  FirstSliceCompareVal = (uint32_t)Compare % \
      (uint16_t)HandlePtr->CC4yRegsPtr->PRS;
10001cfa:	697b      	ldr	r3, [r7, #20]
10001cfc:	699b      	ldr	r3, [r3, #24]
10001cfe:	6b5b      	ldr	r3, [r3, #52]	; 0x34
10001d00:	b29b      	uxth	r3, r3
   * compare register of first slice and quotient is written in compare
   * register of second slice.
   * This is done to achieve compare register value of first slice
   * to be less than period register value.
   */
  FirstSliceCompareVal = (uint32_t)Compare % \
10001d02:	683a      	ldr	r2, [r7, #0]
10001d04:	1c10      	adds	r0, r2, #0
10001d06:	1c19      	adds	r1, r3, #0
10001d08:	f001 fa3a 	bl	10003180 <__aeabi_uidivmod>
10001d0c:	1c0b      	adds	r3, r1, #0
10001d0e:	61fb      	str	r3, [r7, #28]
      (uint16_t)HandlePtr->CC4yRegsPtr->PRS;
  SecondSliceCompareVal = (uint32_t)Compare /
      (uint16_t)HandlePtr->CC4yRegsPtr->PRS;
10001d10:	697b      	ldr	r3, [r7, #20]
10001d12:	699b      	ldr	r3, [r3, #24]
10001d14:	6b5b      	ldr	r3, [r3, #52]	; 0x34
10001d16:	b29b      	uxth	r3, r3
   * This is done to achieve compare register value of first slice
   * to be less than period register value.
   */
  FirstSliceCompareVal = (uint32_t)Compare % \
      (uint16_t)HandlePtr->CC4yRegsPtr->PRS;
  SecondSliceCompareVal = (uint32_t)Compare /
10001d18:	6838      	ldr	r0, [r7, #0]
10001d1a:	1c19      	adds	r1, r3, #0
10001d1c:	f001 f9ec 	bl	100030f8 <__aeabi_uidiv>
10001d20:	1c03      	adds	r3, r0, #0
10001d22:	61bb      	str	r3, [r7, #24]
      (uint16_t)HandlePtr->CC4yRegsPtr->PRS;
  
  HandlePtr->CC4yRegsPtr->CRS = (FirstSliceCompareVal & 0xFFFFU);
10001d24:	697b      	ldr	r3, [r7, #20]
10001d26:	699b      	ldr	r3, [r3, #24]
10001d28:	69fa      	ldr	r2, [r7, #28]
10001d2a:	0412      	lsls	r2, r2, #16
10001d2c:	0c12      	lsrs	r2, r2, #16
10001d2e:	63da      	str	r2, [r3, #60]	; 0x3c
  HandlePtr->CC4yRegs1Ptr->CRS = (SecondSliceCompareVal & 0xFFFFU);
10001d30:	697b      	ldr	r3, [r7, #20]
10001d32:	69db      	ldr	r3, [r3, #28]
10001d34:	69ba      	ldr	r2, [r7, #24]
10001d36:	0412      	lsls	r2, r2, #16
10001d38:	0c12      	lsrs	r2, r2, #16
10001d3a:	63da      	str	r2, [r3, #60]	; 0x3c
  /* Request shadow transfer */
  Temp1 = ((uint32_t)CCU4_GCSS_S0SE_Pos + (4U * (uint32_t)HandlePtr->SecondSlice));
10001d3c:	697a      	ldr	r2, [r7, #20]
10001d3e:	2338      	movs	r3, #56	; 0x38
10001d40:	5cd3      	ldrb	r3, [r2, r3]
10001d42:	009b      	lsls	r3, r3, #2
10001d44:	613b      	str	r3, [r7, #16]
  Temp2 = ((uint32_t)CCU4_GCSS_S0SE_Pos + (4U * (uint32_t)HandlePtr->FirstSlice));
10001d46:	697a      	ldr	r2, [r7, #20]
10001d48:	2337      	movs	r3, #55	; 0x37
10001d4a:	5cd3      	ldrb	r3, [r2, r3]
10001d4c:	009b      	lsls	r3, r3, #2
10001d4e:	60fb      	str	r3, [r7, #12]
  HandlePtr->CC4yKernRegsPtr->GCSS |= (uint32_t)(((uint32_t)0x01 << Temp2 ) | ((uint32_t)0x01 << Temp1));
10001d50:	697b      	ldr	r3, [r7, #20]
10001d52:	695b      	ldr	r3, [r3, #20]
10001d54:	697a      	ldr	r2, [r7, #20]
10001d56:	6952      	ldr	r2, [r2, #20]
10001d58:	6911      	ldr	r1, [r2, #16]
10001d5a:	68fa      	ldr	r2, [r7, #12]
10001d5c:	2001      	movs	r0, #1
10001d5e:	4090      	lsls	r0, r2
10001d60:	693a      	ldr	r2, [r7, #16]
10001d62:	2401      	movs	r4, #1
10001d64:	1c25      	adds	r5, r4, #0
10001d66:	4095      	lsls	r5, r2
10001d68:	1c2a      	adds	r2, r5, #0
10001d6a:	4302      	orrs	r2, r0
10001d6c:	430a      	orrs	r2, r1
10001d6e:	611a      	str	r2, [r3, #16]
}
10001d70:	46bd      	mov	sp, r7
10001d72:	b008      	add	sp, #32
10001d74:	bdb0      	pop	{r4, r5, r7, pc}
10001d76:	46c0      	nop			; (mov r8, r8)

10001d78 <PWMSP001_lSetCompareCenterAlign>:
void PWMSP001_lSetCompareCenterAlign
(
    void* Handle,
    uint32_t Compare
)
{
10001d78:	b590      	push	{r4, r7, lr}
10001d7a:	b085      	sub	sp, #20
10001d7c:	af00      	add	r7, sp, #0
10001d7e:	6078      	str	r0, [r7, #4]
10001d80:	6039      	str	r1, [r7, #0]
  uint32_t Temp1;
  /*<<<DD_PWMSP001_API_5_3>>>*/
  PWMSP001_HandleType* HandlePtr = (PWMSP001_HandleType*)Handle;
10001d82:	687b      	ldr	r3, [r7, #4]
10001d84:	60fb      	str	r3, [r7, #12]
  HandlePtr->CC4yRegsPtr->CRS = (Compare & 0xFFFFU);
10001d86:	68fb      	ldr	r3, [r7, #12]
10001d88:	699b      	ldr	r3, [r3, #24]
10001d8a:	683a      	ldr	r2, [r7, #0]
10001d8c:	0412      	lsls	r2, r2, #16
10001d8e:	0c12      	lsrs	r2, r2, #16
10001d90:	63da      	str	r2, [r3, #60]	; 0x3c
  
  /* Request shadow transfer */
  Temp1 = ((uint32_t)CCU4_GCSS_S0SE_Pos + (4U*(uint32_t)HandlePtr->FirstSlice));
10001d92:	68fa      	ldr	r2, [r7, #12]
10001d94:	2337      	movs	r3, #55	; 0x37
10001d96:	5cd3      	ldrb	r3, [r2, r3]
10001d98:	009b      	lsls	r3, r3, #2
10001d9a:	60bb      	str	r3, [r7, #8]
  HandlePtr->CC4yKernRegsPtr->GCSS |= ((uint32_t)0x01 << Temp1);
10001d9c:	68fb      	ldr	r3, [r7, #12]
10001d9e:	695b      	ldr	r3, [r3, #20]
10001da0:	68fa      	ldr	r2, [r7, #12]
10001da2:	6952      	ldr	r2, [r2, #20]
10001da4:	6911      	ldr	r1, [r2, #16]
10001da6:	68ba      	ldr	r2, [r7, #8]
10001da8:	2001      	movs	r0, #1
10001daa:	1c04      	adds	r4, r0, #0
10001dac:	4094      	lsls	r4, r2
10001dae:	1c22      	adds	r2, r4, #0
10001db0:	430a      	orrs	r2, r1
10001db2:	611a      	str	r2, [r3, #16]
}
10001db4:	46bd      	mov	sp, r7
10001db6:	b005      	add	sp, #20
10001db8:	bd90      	pop	{r4, r7, pc}
10001dba:	46c0      	nop			; (mov r8, r8)

10001dbc <PWMSP001_SetDutyCycle>:
status_t PWMSP001_SetDutyCycle
(
    const PWMSP001_HandleType* HandlePtr,
    float Duty
)
{
10001dbc:	b580      	push	{r7, lr}
10001dbe:	b084      	sub	sp, #16
10001dc0:	af00      	add	r7, sp, #0
10001dc2:	6078      	str	r0, [r7, #4]
10001dc4:	6039      	str	r1, [r7, #0]
  status_t Status = (uint32_t)PWMSP001_OPER_NOT_ALLOWED_ERROR;
10001dc6:	2301      	movs	r3, #1
10001dc8:	60fb      	str	r3, [r7, #12]

  if ( HandlePtr->DynamicDataType->StateType != PWMSP001_UNINITIALIZED)
10001dca:	687b      	ldr	r3, [r7, #4]
10001dcc:	6bdb      	ldr	r3, [r3, #60]	; 0x3c
10001dce:	781b      	ldrb	r3, [r3, #0]
10001dd0:	2b00      	cmp	r3, #0
10001dd2:	d019      	beq.n	10001e08 <PWMSP001_SetDutyCycle+0x4c>
  {
  if((Duty > (float)100) || ((float)Duty < (float)0))
10001dd4:	6838      	ldr	r0, [r7, #0]
10001dd6:	490f      	ldr	r1, [pc, #60]	; (10001e14 <PWMSP001_SetDutyCycle+0x58>)
10001dd8:	f001 fa64 	bl	100032a4 <__aeabi_fcmpgt>
10001ddc:	1c03      	adds	r3, r0, #0
10001dde:	2b00      	cmp	r3, #0
10001de0:	d106      	bne.n	10001df0 <PWMSP001_SetDutyCycle+0x34>
10001de2:	6838      	ldr	r0, [r7, #0]
10001de4:	2100      	movs	r1, #0
10001de6:	f001 fa49 	bl	1000327c <__aeabi_fcmplt>
10001dea:	1c03      	adds	r3, r0, #0
10001dec:	2b00      	cmp	r3, #0
10001dee:	d002      	beq.n	10001df6 <PWMSP001_SetDutyCycle+0x3a>
  {
    Status = (uint32_t)PWMSP001_INVALID_PARAM_ERROR;
10001df0:	2302      	movs	r3, #2
10001df2:	60fb      	str	r3, [r7, #12]
10001df4:	e008      	b.n	10001e08 <PWMSP001_SetDutyCycle+0x4c>
  }
  else
  {
    /* Call the function as per configured mode */
    HandlePtr->SetDutyFuncPtr((const void*)HandlePtr, Duty);
10001df6:	687b      	ldr	r3, [r7, #4]
10001df8:	6c5b      	ldr	r3, [r3, #68]	; 0x44
10001dfa:	6879      	ldr	r1, [r7, #4]
10001dfc:	683a      	ldr	r2, [r7, #0]
10001dfe:	1c08      	adds	r0, r1, #0
10001e00:	1c11      	adds	r1, r2, #0
10001e02:	4798      	blx	r3
    Status = (uint32_t)DAVEApp_SUCCESS;
10001e04:	2300      	movs	r3, #0
10001e06:	60fb      	str	r3, [r7, #12]
  }
  }
  return (Status);
10001e08:	68fb      	ldr	r3, [r7, #12]
}
10001e0a:	1c18      	adds	r0, r3, #0
10001e0c:	46bd      	mov	sp, r7
10001e0e:	b004      	add	sp, #16
10001e10:	bd80      	pop	{r7, pc}
10001e12:	46c0      	nop			; (mov r8, r8)
10001e14:	42c80000 	.word	0x42c80000

10001e18 <PWMSP001_lSetDutyEdgeAlign>:
void PWMSP001_lSetDutyEdgeAlign
(
    void* Handle,
    float Duty
)
{
10001e18:	b590      	push	{r4, r7, lr}
10001e1a:	b089      	sub	sp, #36	; 0x24
10001e1c:	af00      	add	r7, sp, #0
10001e1e:	6078      	str	r0, [r7, #4]
10001e20:	6039      	str	r1, [r7, #0]
  uint32_t FirstSliceCompareVal = (uint32_t)0;
10001e22:	2300      	movs	r3, #0
10001e24:	61fb      	str	r3, [r7, #28]
  uint32_t Temp1;
  float fDuty, fPRS ;
  PWMSP001_HandleType* HandlePtr = (PWMSP001_HandleType*)Handle;
10001e26:	687b      	ldr	r3, [r7, #4]
10001e28:	61bb      	str	r3, [r7, #24]
  fDuty = Duty;
10001e2a:	683b      	ldr	r3, [r7, #0]
10001e2c:	617b      	str	r3, [r7, #20]
  
  /*<<<DD_PWMSP001_API_15_3>>>*/
  
  fDuty = (float)((float)100.00 - (float)fDuty)/(float)100.00;
10001e2e:	481c      	ldr	r0, [pc, #112]	; (10001ea0 <PWMSP001_lSetDutyEdgeAlign+0x88>)
10001e30:	6979      	ldr	r1, [r7, #20]
10001e32:	f001 fd85 	bl	10003940 <__aeabi_fsub>
10001e36:	1c03      	adds	r3, r0, #0
10001e38:	1c18      	adds	r0, r3, #0
10001e3a:	4919      	ldr	r1, [pc, #100]	; (10001ea0 <PWMSP001_lSetDutyEdgeAlign+0x88>)
10001e3c:	f001 fa5e 	bl	100032fc <__aeabi_fdiv>
10001e40:	1c03      	adds	r3, r0, #0
10001e42:	617b      	str	r3, [r7, #20]
  fPRS = (float)((uint32_t)HandlePtr->CC4yRegsPtr->PRS + 1U);
10001e44:	69bb      	ldr	r3, [r7, #24]
10001e46:	699b      	ldr	r3, [r3, #24]
10001e48:	6b5b      	ldr	r3, [r3, #52]	; 0x34
10001e4a:	3301      	adds	r3, #1
10001e4c:	1c18      	adds	r0, r3, #0
10001e4e:	f001 ff71 	bl	10003d34 <__aeabi_ui2f>
10001e52:	1c03      	adds	r3, r0, #0
10001e54:	613b      	str	r3, [r7, #16]
  FirstSliceCompareVal = (uint32_t)( fPRS * fDuty);
10001e56:	6938      	ldr	r0, [r7, #16]
10001e58:	6979      	ldr	r1, [r7, #20]
10001e5a:	f001 fc41 	bl	100036e0 <__aeabi_fmul>
10001e5e:	1c03      	adds	r3, r0, #0
10001e60:	1c18      	adds	r0, r3, #0
10001e62:	f001 fa33 	bl	100032cc <__aeabi_f2uiz>
10001e66:	1c03      	adds	r3, r0, #0
10001e68:	61fb      	str	r3, [r7, #28]
  HandlePtr->CC4yRegsPtr->CRS = FirstSliceCompareVal  & 0xFFFFU;
10001e6a:	69bb      	ldr	r3, [r7, #24]
10001e6c:	699b      	ldr	r3, [r3, #24]
10001e6e:	69fa      	ldr	r2, [r7, #28]
10001e70:	0412      	lsls	r2, r2, #16
10001e72:	0c12      	lsrs	r2, r2, #16
10001e74:	63da      	str	r2, [r3, #60]	; 0x3c
  
  /*Shadow transfer */
  Temp1 =  ((uint32_t)CCU4_GCSS_S0SE_Pos + ((uint32_t)4 *(uint32_t)HandlePtr->FirstSlice));
10001e76:	69ba      	ldr	r2, [r7, #24]
10001e78:	2337      	movs	r3, #55	; 0x37
10001e7a:	5cd3      	ldrb	r3, [r2, r3]
10001e7c:	009b      	lsls	r3, r3, #2
10001e7e:	60fb      	str	r3, [r7, #12]
  HandlePtr->CC4yKernRegsPtr->GCSS |= (uint32_t)((uint32_t)0x01 << (uint32_t)Temp1);
10001e80:	69bb      	ldr	r3, [r7, #24]
10001e82:	695b      	ldr	r3, [r3, #20]
10001e84:	69ba      	ldr	r2, [r7, #24]
10001e86:	6952      	ldr	r2, [r2, #20]
10001e88:	6911      	ldr	r1, [r2, #16]
10001e8a:	68fa      	ldr	r2, [r7, #12]
10001e8c:	2001      	movs	r0, #1
10001e8e:	1c04      	adds	r4, r0, #0
10001e90:	4094      	lsls	r4, r2
10001e92:	1c22      	adds	r2, r4, #0
10001e94:	430a      	orrs	r2, r1
10001e96:	611a      	str	r2, [r3, #16]
  /*Update dynamic handle */
}
10001e98:	46bd      	mov	sp, r7
10001e9a:	b009      	add	sp, #36	; 0x24
10001e9c:	bd90      	pop	{r4, r7, pc}
10001e9e:	46c0      	nop			; (mov r8, r8)
10001ea0:	42c80000 	.word	0x42c80000

10001ea4 <PWMSP001_lSetDutyEdgeAlignTimerConcat>:
void PWMSP001_lSetDutyEdgeAlignTimerConcat
(
    void* Handle,
    float Duty
)
{
10001ea4:	b5b0      	push	{r4, r5, r7, lr}
10001ea6:	b08a      	sub	sp, #40	; 0x28
10001ea8:	af00      	add	r7, sp, #0
10001eaa:	6078      	str	r0, [r7, #4]
10001eac:	6039      	str	r1, [r7, #0]
  uint32_t Compare = (uint32_t)0;
10001eae:	2300      	movs	r3, #0
10001eb0:	627b      	str	r3, [r7, #36]	; 0x24
  uint32_t FirstSliceCompareVal = (uint32_t)0;
10001eb2:	2300      	movs	r3, #0
10001eb4:	623b      	str	r3, [r7, #32]
  uint32_t SecondSliceCompareVal = (uint32_t)0;
10001eb6:	2300      	movs	r3, #0
10001eb8:	61fb      	str	r3, [r7, #28]
  uint32_t Temp2;
  uint32_t Temp3;
  float fDuty, fPRS ;
  PWMSP001_HandleType* HandlePtr = (PWMSP001_HandleType*)Handle;
10001eba:	687b      	ldr	r3, [r7, #4]
10001ebc:	61bb      	str	r3, [r7, #24]
  
  fDuty = Duty;
10001ebe:	683b      	ldr	r3, [r7, #0]
10001ec0:	617b      	str	r3, [r7, #20]
  /*<<<DD_PWMSP001_API_15_4>>>*/
  /* Find the compare register value from the duty cycle and period register value */
  Compare =(uint32_t)HandlePtr->CC4yRegs1Ptr->PRS + 1U;
10001ec2:	69bb      	ldr	r3, [r7, #24]
10001ec4:	69db      	ldr	r3, [r3, #28]
10001ec6:	6b5b      	ldr	r3, [r3, #52]	; 0x34
10001ec8:	3301      	adds	r3, #1
10001eca:	627b      	str	r3, [r7, #36]	; 0x24
  Compare *= ((uint32_t)((uint32_t)HandlePtr->CC4yRegsPtr->PRS & 0xFFFFU) +1U); 
10001ecc:	69bb      	ldr	r3, [r7, #24]
10001ece:	699b      	ldr	r3, [r3, #24]
10001ed0:	6b5b      	ldr	r3, [r3, #52]	; 0x34
10001ed2:	041b      	lsls	r3, r3, #16
10001ed4:	0c1b      	lsrs	r3, r3, #16
10001ed6:	1c5a      	adds	r2, r3, #1
10001ed8:	6a7b      	ldr	r3, [r7, #36]	; 0x24
10001eda:	4353      	muls	r3, r2
10001edc:	627b      	str	r3, [r7, #36]	; 0x24
  Compare +=  (uint32_t)1;
10001ede:	6a7b      	ldr	r3, [r7, #36]	; 0x24
10001ee0:	3301      	adds	r3, #1
10001ee2:	627b      	str	r3, [r7, #36]	; 0x24
  
  fDuty = ((float)100.00 - (float)fDuty)/(float)100.00;
10001ee4:	482c      	ldr	r0, [pc, #176]	; (10001f98 <PWMSP001_lSetDutyEdgeAlignTimerConcat+0xf4>)
10001ee6:	6979      	ldr	r1, [r7, #20]
10001ee8:	f001 fd2a 	bl	10003940 <__aeabi_fsub>
10001eec:	1c03      	adds	r3, r0, #0
10001eee:	1c18      	adds	r0, r3, #0
10001ef0:	4929      	ldr	r1, [pc, #164]	; (10001f98 <PWMSP001_lSetDutyEdgeAlignTimerConcat+0xf4>)
10001ef2:	f001 fa03 	bl	100032fc <__aeabi_fdiv>
10001ef6:	1c03      	adds	r3, r0, #0
10001ef8:	617b      	str	r3, [r7, #20]
  fPRS = (float)(Compare);
10001efa:	6a78      	ldr	r0, [r7, #36]	; 0x24
10001efc:	f001 ff1a 	bl	10003d34 <__aeabi_ui2f>
10001f00:	1c03      	adds	r3, r0, #0
10001f02:	613b      	str	r3, [r7, #16]
  Compare = (uint32_t)( fPRS * fDuty);
10001f04:	6938      	ldr	r0, [r7, #16]
10001f06:	6979      	ldr	r1, [r7, #20]
10001f08:	f001 fbea 	bl	100036e0 <__aeabi_fmul>
10001f0c:	1c03      	adds	r3, r0, #0
10001f0e:	1c18      	adds	r0, r3, #0
10001f10:	f001 f9dc 	bl	100032cc <__aeabi_f2uiz>
10001f14:	1c03      	adds	r3, r0, #0
10001f16:	627b      	str	r3, [r7, #36]	; 0x24

  FirstSliceCompareVal =(uint32_t)
                    ((uint32_t)Compare % ((uint32_t)((uint32_t)HandlePtr->CC4yRegsPtr->PRS & 0xFFFFU)));
10001f18:	69bb      	ldr	r3, [r7, #24]
10001f1a:	699b      	ldr	r3, [r3, #24]
10001f1c:	6b5b      	ldr	r3, [r3, #52]	; 0x34
10001f1e:	041b      	lsls	r3, r3, #16
10001f20:	0c1b      	lsrs	r3, r3, #16
  
  fDuty = ((float)100.00 - (float)fDuty)/(float)100.00;
  fPRS = (float)(Compare);
  Compare = (uint32_t)( fPRS * fDuty);

  FirstSliceCompareVal =(uint32_t)
10001f22:	6a7a      	ldr	r2, [r7, #36]	; 0x24
10001f24:	1c10      	adds	r0, r2, #0
10001f26:	1c19      	adds	r1, r3, #0
10001f28:	f001 f92a 	bl	10003180 <__aeabi_uidivmod>
10001f2c:	1c0b      	adds	r3, r1, #0
10001f2e:	623b      	str	r3, [r7, #32]
                    ((uint32_t)Compare % ((uint32_t)((uint32_t)HandlePtr->CC4yRegsPtr->PRS & 0xFFFFU)));
  HandlePtr->CC4yRegsPtr->CRS = (uint32_t)FirstSliceCompareVal  & 0xFFFFU;
10001f30:	69bb      	ldr	r3, [r7, #24]
10001f32:	699b      	ldr	r3, [r3, #24]
10001f34:	6a3a      	ldr	r2, [r7, #32]
10001f36:	0412      	lsls	r2, r2, #16
10001f38:	0c12      	lsrs	r2, r2, #16
10001f3a:	63da      	str	r2, [r3, #60]	; 0x3c
  SecondSliceCompareVal = (uint32_t)
                    ((uint32_t)Compare / ((uint32_t)((uint32_t)HandlePtr->CC4yRegsPtr->PRS & 0xFFFFU)));
10001f3c:	69bb      	ldr	r3, [r7, #24]
10001f3e:	699b      	ldr	r3, [r3, #24]
10001f40:	6b5b      	ldr	r3, [r3, #52]	; 0x34
10001f42:	041b      	lsls	r3, r3, #16
10001f44:	0c1b      	lsrs	r3, r3, #16
  Compare = (uint32_t)( fPRS * fDuty);

  FirstSliceCompareVal =(uint32_t)
                    ((uint32_t)Compare % ((uint32_t)((uint32_t)HandlePtr->CC4yRegsPtr->PRS & 0xFFFFU)));
  HandlePtr->CC4yRegsPtr->CRS = (uint32_t)FirstSliceCompareVal  & 0xFFFFU;
  SecondSliceCompareVal = (uint32_t)
10001f46:	6a78      	ldr	r0, [r7, #36]	; 0x24
10001f48:	1c19      	adds	r1, r3, #0
10001f4a:	f001 f8d5 	bl	100030f8 <__aeabi_uidiv>
10001f4e:	1c03      	adds	r3, r0, #0
10001f50:	61fb      	str	r3, [r7, #28]
                    ((uint32_t)Compare / ((uint32_t)((uint32_t)HandlePtr->CC4yRegsPtr->PRS & 0xFFFFU)));
  HandlePtr->CC4yRegs1Ptr->CRS = (uint32_t)SecondSliceCompareVal  & 0xFFFFU;
10001f52:	69bb      	ldr	r3, [r7, #24]
10001f54:	69db      	ldr	r3, [r3, #28]
10001f56:	69fa      	ldr	r2, [r7, #28]
10001f58:	0412      	lsls	r2, r2, #16
10001f5a:	0c12      	lsrs	r2, r2, #16
10001f5c:	63da      	str	r2, [r3, #60]	; 0x3c

  /** shadow transfer */
  Temp2 = ((uint32_t)CCU4_GCSS_S0SE_Pos + (4U * (uint32_t)HandlePtr->FirstSlice));
10001f5e:	69ba      	ldr	r2, [r7, #24]
10001f60:	2337      	movs	r3, #55	; 0x37
10001f62:	5cd3      	ldrb	r3, [r2, r3]
10001f64:	009b      	lsls	r3, r3, #2
10001f66:	60fb      	str	r3, [r7, #12]
  Temp3 = ((uint32_t)CCU4_GCSS_S0SE_Pos + (4U * (uint32_t)HandlePtr->SecondSlice));
10001f68:	69ba      	ldr	r2, [r7, #24]
10001f6a:	2338      	movs	r3, #56	; 0x38
10001f6c:	5cd3      	ldrb	r3, [r2, r3]
10001f6e:	009b      	lsls	r3, r3, #2
10001f70:	60bb      	str	r3, [r7, #8]
  HandlePtr->CC4yKernRegsPtr->GCSS |= (uint32_t)(((uint32_t)1 << (uint32_t)Temp2 ) | ((uint32_t)1 << (uint32_t)Temp3));
10001f72:	69bb      	ldr	r3, [r7, #24]
10001f74:	695b      	ldr	r3, [r3, #20]
10001f76:	69ba      	ldr	r2, [r7, #24]
10001f78:	6952      	ldr	r2, [r2, #20]
10001f7a:	6911      	ldr	r1, [r2, #16]
10001f7c:	68fa      	ldr	r2, [r7, #12]
10001f7e:	2001      	movs	r0, #1
10001f80:	4090      	lsls	r0, r2
10001f82:	68ba      	ldr	r2, [r7, #8]
10001f84:	2401      	movs	r4, #1
10001f86:	1c25      	adds	r5, r4, #0
10001f88:	4095      	lsls	r5, r2
10001f8a:	1c2a      	adds	r2, r5, #0
10001f8c:	4302      	orrs	r2, r0
10001f8e:	430a      	orrs	r2, r1
10001f90:	611a      	str	r2, [r3, #16]
}
10001f92:	46bd      	mov	sp, r7
10001f94:	b00a      	add	sp, #40	; 0x28
10001f96:	bdb0      	pop	{r4, r5, r7, pc}
10001f98:	42c80000 	.word	0x42c80000

10001f9c <PWMSP001_lSetDutyCenterAlign>:
void PWMSP001_lSetDutyCenterAlign
(
    void* Handle,
    float Duty
)
{
10001f9c:	b590      	push	{r4, r7, lr}
10001f9e:	b089      	sub	sp, #36	; 0x24
10001fa0:	af00      	add	r7, sp, #0
10001fa2:	6078      	str	r0, [r7, #4]
10001fa4:	6039      	str	r1, [r7, #0]
  /*<<<DD_PWMSP001_API_15_5>>>*/
  uint32_t FirstSliceCompareVal = (uint32_t)0x00;
10001fa6:	2300      	movs	r3, #0
10001fa8:	61fb      	str	r3, [r7, #28]
  uint32_t Temp1;
  float fDuty, fPRS ;
  PWMSP001_HandleType* HandlePtr = (PWMSP001_HandleType*)Handle;
10001faa:	687b      	ldr	r3, [r7, #4]
10001fac:	61bb      	str	r3, [r7, #24]
  fDuty = Duty;
10001fae:	683b      	ldr	r3, [r7, #0]
10001fb0:	617b      	str	r3, [r7, #20]

  fDuty = (float)((float)100.00 - (float)fDuty)/(float)100.00;
10001fb2:	481b      	ldr	r0, [pc, #108]	; (10002020 <PWMSP001_lSetDutyCenterAlign+0x84>)
10001fb4:	6979      	ldr	r1, [r7, #20]
10001fb6:	f001 fcc3 	bl	10003940 <__aeabi_fsub>
10001fba:	1c03      	adds	r3, r0, #0
10001fbc:	1c18      	adds	r0, r3, #0
10001fbe:	4918      	ldr	r1, [pc, #96]	; (10002020 <PWMSP001_lSetDutyCenterAlign+0x84>)
10001fc0:	f001 f99c 	bl	100032fc <__aeabi_fdiv>
10001fc4:	1c03      	adds	r3, r0, #0
10001fc6:	617b      	str	r3, [r7, #20]
  fPRS = (float)HandlePtr->CC4yRegsPtr->PRS;
10001fc8:	69bb      	ldr	r3, [r7, #24]
10001fca:	699b      	ldr	r3, [r3, #24]
10001fcc:	6b5b      	ldr	r3, [r3, #52]	; 0x34
10001fce:	1c18      	adds	r0, r3, #0
10001fd0:	f001 feb0 	bl	10003d34 <__aeabi_ui2f>
10001fd4:	1c03      	adds	r3, r0, #0
10001fd6:	613b      	str	r3, [r7, #16]
  FirstSliceCompareVal = (uint32_t)( fPRS * fDuty);
10001fd8:	6938      	ldr	r0, [r7, #16]
10001fda:	6979      	ldr	r1, [r7, #20]
10001fdc:	f001 fb80 	bl	100036e0 <__aeabi_fmul>
10001fe0:	1c03      	adds	r3, r0, #0
10001fe2:	1c18      	adds	r0, r3, #0
10001fe4:	f001 f972 	bl	100032cc <__aeabi_f2uiz>
10001fe8:	1c03      	adds	r3, r0, #0
10001fea:	61fb      	str	r3, [r7, #28]
  HandlePtr->CC4yRegsPtr->CRS = (uint32_t)FirstSliceCompareVal  & 0xFFFFU;
10001fec:	69bb      	ldr	r3, [r7, #24]
10001fee:	699b      	ldr	r3, [r3, #24]
10001ff0:	69fa      	ldr	r2, [r7, #28]
10001ff2:	0412      	lsls	r2, r2, #16
10001ff4:	0c12      	lsrs	r2, r2, #16
10001ff6:	63da      	str	r2, [r3, #60]	; 0x3c

  /*shadow transfer */
  Temp1 = ((uint32_t)CCU4_GCSS_S0SE_Pos + (4U * (uint32_t)HandlePtr->FirstSlice));
10001ff8:	69ba      	ldr	r2, [r7, #24]
10001ffa:	2337      	movs	r3, #55	; 0x37
10001ffc:	5cd3      	ldrb	r3, [r2, r3]
10001ffe:	009b      	lsls	r3, r3, #2
10002000:	60fb      	str	r3, [r7, #12]
  HandlePtr->CC4yKernRegsPtr->GCSS |= (uint32_t)((uint32_t)0x01 << (uint32_t)Temp1);
10002002:	69bb      	ldr	r3, [r7, #24]
10002004:	695b      	ldr	r3, [r3, #20]
10002006:	69ba      	ldr	r2, [r7, #24]
10002008:	6952      	ldr	r2, [r2, #20]
1000200a:	6911      	ldr	r1, [r2, #16]
1000200c:	68fa      	ldr	r2, [r7, #12]
1000200e:	2001      	movs	r0, #1
10002010:	1c04      	adds	r4, r0, #0
10002012:	4094      	lsls	r4, r2
10002014:	1c22      	adds	r2, r4, #0
10002016:	430a      	orrs	r2, r1
10002018:	611a      	str	r2, [r3, #16]
}
1000201a:	46bd      	mov	sp, r7
1000201c:	b009      	add	sp, #36	; 0x24
1000201e:	bd90      	pop	{r4, r7, pc}
10002020:	42c80000 	.word	0x42c80000

10002024 <PWMSP001_SetPeriodAndCompare>:
(
    const PWMSP001_HandleType* HandlePtr,
    uint32_t Period,
    uint32_t Compare
)
{
10002024:	b580      	push	{r7, lr}
10002026:	b086      	sub	sp, #24
10002028:	af00      	add	r7, sp, #0
1000202a:	60f8      	str	r0, [r7, #12]
1000202c:	60b9      	str	r1, [r7, #8]
1000202e:	607a      	str	r2, [r7, #4]
  status_t Status = (uint32_t)PWMSP001_OPER_NOT_ALLOWED_ERROR;
10002030:	2301      	movs	r3, #1
10002032:	617b      	str	r3, [r7, #20]
  uint32_t PeriodVal = 0UL;
10002034:	2300      	movs	r3, #0
10002036:	613b      	str	r3, [r7, #16]
  /*<<<DD_PWMSP001_API_6_1>>>*/
  if ((HandlePtr->DynamicDataType->StateType != PWMSP001_UNINITIALIZED))
10002038:	68fb      	ldr	r3, [r7, #12]
1000203a:	6bdb      	ldr	r3, [r3, #60]	; 0x3c
1000203c:	781b      	ldrb	r3, [r3, #0]
1000203e:	2b00      	cmp	r3, #0
10002040:	d037      	beq.n	100020b2 <PWMSP001_SetPeriodAndCompare+0x8e>
  {
   if((Period == (uint32_t)0) || (((uint32_t)Compare > (uint32_t)HandlePtr->kMaxPeriodVal) &&
10002042:	68bb      	ldr	r3, [r7, #8]
10002044:	2b00      	cmp	r3, #0
10002046:	d009      	beq.n	1000205c <PWMSP001_SetPeriodAndCompare+0x38>
10002048:	68fb      	ldr	r3, [r7, #12]
1000204a:	6ada      	ldr	r2, [r3, #44]	; 0x2c
1000204c:	687b      	ldr	r3, [r7, #4]
1000204e:	429a      	cmp	r2, r3
10002050:	d207      	bcs.n	10002062 <PWMSP001_SetPeriodAndCompare+0x3e>
       (HandlePtr->kTimerConcatenation == (uint8_t)RESET)))
10002052:	68fa      	ldr	r2, [r7, #12]
10002054:	2320      	movs	r3, #32
10002056:	5cd3      	ldrb	r3, [r2, r3]
  status_t Status = (uint32_t)PWMSP001_OPER_NOT_ALLOWED_ERROR;
  uint32_t PeriodVal = 0UL;
  /*<<<DD_PWMSP001_API_6_1>>>*/
  if ((HandlePtr->DynamicDataType->StateType != PWMSP001_UNINITIALIZED))
  {
   if((Period == (uint32_t)0) || (((uint32_t)Compare > (uint32_t)HandlePtr->kMaxPeriodVal) &&
10002058:	2b00      	cmp	r3, #0
1000205a:	d102      	bne.n	10002062 <PWMSP001_SetPeriodAndCompare+0x3e>
       (HandlePtr->kTimerConcatenation == (uint8_t)RESET)))
    {
      Status = (uint32_t)PWMSP001_INVALID_PARAM_ERROR;
1000205c:	2302      	movs	r3, #2
1000205e:	617b      	str	r3, [r7, #20]
10002060:	e027      	b.n	100020b2 <PWMSP001_SetPeriodAndCompare+0x8e>
    }
    else
    {
      if ((Period > (uint32_t)HandlePtr->kMaxPeriodVal)&&\
10002062:	68fb      	ldr	r3, [r7, #12]
10002064:	6ada      	ldr	r2, [r3, #44]	; 0x2c
10002066:	68bb      	ldr	r3, [r7, #8]
10002068:	429a      	cmp	r2, r3
1000206a:	d207      	bcs.n	1000207c <PWMSP001_SetPeriodAndCompare+0x58>
          ((HandlePtr->kTimerConcatenation != (uint8_t)SET))
1000206c:	68fa      	ldr	r2, [r7, #12]
1000206e:	2320      	movs	r3, #32
10002070:	5cd3      	ldrb	r3, [r2, r3]
    {
      Status = (uint32_t)PWMSP001_INVALID_PARAM_ERROR;
    }
    else
    {
      if ((Period > (uint32_t)HandlePtr->kMaxPeriodVal)&&\
10002072:	2b01      	cmp	r3, #1
10002074:	d002      	beq.n	1000207c <PWMSP001_SetPeriodAndCompare+0x58>
          ((HandlePtr->kTimerConcatenation != (uint8_t)SET))
          )
      {
        Status = (uint32_t)PWMSP001_INVALID_PARAM_ERROR;
10002076:	2302      	movs	r3, #2
10002078:	617b      	str	r3, [r7, #20]
1000207a:	e01a      	b.n	100020b2 <PWMSP001_SetPeriodAndCompare+0x8e>
      }
      else
      {
        PeriodVal = Period;
1000207c:	68bb      	ldr	r3, [r7, #8]
1000207e:	613b      	str	r3, [r7, #16]
        if (HandlePtr->kTimerConcatenation == (uint8_t)SET)
10002080:	68fa      	ldr	r2, [r7, #12]
10002082:	2320      	movs	r3, #32
10002084:	5cd3      	ldrb	r3, [r2, r3]
10002086:	2b01      	cmp	r3, #1
10002088:	d104      	bne.n	10002094 <PWMSP001_SetPeriodAndCompare+0x70>
        {
          HandlePtr->CC4yRegs1Ptr->PRS = ((PeriodVal & 0xFFFF0000U) >> 16U);
1000208a:	68fb      	ldr	r3, [r7, #12]
1000208c:	69db      	ldr	r3, [r3, #28]
1000208e:	693a      	ldr	r2, [r7, #16]
10002090:	0c12      	lsrs	r2, r2, #16
10002092:	635a      	str	r2, [r3, #52]	; 0x34
        }
        /*<<<DD_PWMSP001_API_6_3>>>*/
        HandlePtr->CC4yRegsPtr->PRS = (PeriodVal & 0xFFFFU);
10002094:	68fb      	ldr	r3, [r7, #12]
10002096:	699b      	ldr	r3, [r3, #24]
10002098:	693a      	ldr	r2, [r7, #16]
1000209a:	0412      	lsls	r2, r2, #16
1000209c:	0c12      	lsrs	r2, r2, #16
1000209e:	635a      	str	r2, [r3, #52]	; 0x34
        /* Call function as per the configured mode */
        HandlePtr->SetCompareFuncPtr((const void*)HandlePtr, Compare);
100020a0:	68fb      	ldr	r3, [r7, #12]
100020a2:	6c1b      	ldr	r3, [r3, #64]	; 0x40
100020a4:	68f9      	ldr	r1, [r7, #12]
100020a6:	687a      	ldr	r2, [r7, #4]
100020a8:	1c08      	adds	r0, r1, #0
100020aa:	1c11      	adds	r1, r2, #0
100020ac:	4798      	blx	r3
        Status = (uint32_t)DAVEApp_SUCCESS;
100020ae:	2300      	movs	r3, #0
100020b0:	617b      	str	r3, [r7, #20]
      }
    }
  }
  return Status;
100020b2:	697b      	ldr	r3, [r7, #20]
}
100020b4:	1c18      	adds	r0, r3, #0
100020b6:	46bd      	mov	sp, r7
100020b8:	b006      	add	sp, #24
100020ba:	bd80      	pop	{r7, pc}

100020bc <PWMSP001_SetPeriod>:
status_t PWMSP001_SetPeriod
(
    const PWMSP001_HandleType* HandlePtr,
    uint32_t Period
)
{
100020bc:	b590      	push	{r4, r7, lr}
100020be:	b087      	sub	sp, #28
100020c0:	af00      	add	r7, sp, #0
100020c2:	6078      	str	r0, [r7, #4]
100020c4:	6039      	str	r1, [r7, #0]
  status_t Status = (uint32_t)PWMSP001_OPER_NOT_ALLOWED_ERROR;
100020c6:	2301      	movs	r3, #1
100020c8:	617b      	str	r3, [r7, #20]
  uint32_t PeriodVal = 0X00U;
100020ca:	2300      	movs	r3, #0
100020cc:	613b      	str	r3, [r7, #16]
  uint32_t Temp1;
  
  /*<<<DD_PWMSP001_API_6_1>>>*/
  if ((HandlePtr->DynamicDataType->StateType != PWMSP001_UNINITIALIZED))
100020ce:	687b      	ldr	r3, [r7, #4]
100020d0:	6bdb      	ldr	r3, [r3, #60]	; 0x3c
100020d2:	781b      	ldrb	r3, [r3, #0]
100020d4:	2b00      	cmp	r3, #0
100020d6:	d04d      	beq.n	10002174 <PWMSP001_SetPeriod+0xb8>
  {
    if(Period == (uint32_t)0)
100020d8:	683b      	ldr	r3, [r7, #0]
100020da:	2b00      	cmp	r3, #0
100020dc:	d102      	bne.n	100020e4 <PWMSP001_SetPeriod+0x28>
    {
      Status = (uint32_t)PWMSP001_INVALID_PARAM_ERROR;
100020de:	2302      	movs	r3, #2
100020e0:	617b      	str	r3, [r7, #20]
100020e2:	e047      	b.n	10002174 <PWMSP001_SetPeriod+0xb8>
    }
    else
    {
      if((Period > (uint32_t)HandlePtr->kMaxPeriodVal) &&\
100020e4:	687b      	ldr	r3, [r7, #4]
100020e6:	6ada      	ldr	r2, [r3, #44]	; 0x2c
100020e8:	683b      	ldr	r3, [r7, #0]
100020ea:	429a      	cmp	r2, r3
100020ec:	d207      	bcs.n	100020fe <PWMSP001_SetPeriod+0x42>
         (HandlePtr->kTimerConcatenation != (uint8_t)SET))
100020ee:	687a      	ldr	r2, [r7, #4]
100020f0:	2320      	movs	r3, #32
100020f2:	5cd3      	ldrb	r3, [r2, r3]
    {
      Status = (uint32_t)PWMSP001_INVALID_PARAM_ERROR;
    }
    else
    {
      if((Period > (uint32_t)HandlePtr->kMaxPeriodVal) &&\
100020f4:	2b01      	cmp	r3, #1
100020f6:	d002      	beq.n	100020fe <PWMSP001_SetPeriod+0x42>
         (HandlePtr->kTimerConcatenation != (uint8_t)SET))
      {
        Status = (uint32_t)PWMSP001_INVALID_PARAM_ERROR;
100020f8:	2302      	movs	r3, #2
100020fa:	617b      	str	r3, [r7, #20]
100020fc:	e03a      	b.n	10002174 <PWMSP001_SetPeriod+0xb8>
      }
      else
      {
        PeriodVal = Period;
100020fe:	683b      	ldr	r3, [r7, #0]
10002100:	613b      	str	r3, [r7, #16]
        if (HandlePtr->kTimerConcatenation == (uint8_t)SET)
10002102:	687a      	ldr	r2, [r7, #4]
10002104:	2320      	movs	r3, #32
10002106:	5cd3      	ldrb	r3, [r2, r3]
10002108:	2b01      	cmp	r3, #1
1000210a:	d104      	bne.n	10002116 <PWMSP001_SetPeriod+0x5a>
        {
          HandlePtr->CC4yRegs1Ptr->PRS = ((PeriodVal & 0xFFFF0000U) >> 16U);
1000210c:	687b      	ldr	r3, [r7, #4]
1000210e:	69db      	ldr	r3, [r3, #28]
10002110:	693a      	ldr	r2, [r7, #16]
10002112:	0c12      	lsrs	r2, r2, #16
10002114:	635a      	str	r2, [r3, #52]	; 0x34
        }
        HandlePtr->CC4yRegsPtr->PRS = (PeriodVal & 0xFFFFU);
10002116:	687b      	ldr	r3, [r7, #4]
10002118:	699b      	ldr	r3, [r3, #24]
1000211a:	693a      	ldr	r2, [r7, #16]
1000211c:	0412      	lsls	r2, r2, #16
1000211e:	0c12      	lsrs	r2, r2, #16
10002120:	635a      	str	r2, [r3, #52]	; 0x34
        /*Request shadow transfer for the First slice*/
        Temp1 = (uint32_t)CCU4_GCSS_S0SE_Pos + ((uint32_t)4 * (uint32_t)HandlePtr->FirstSlice);
10002122:	687a      	ldr	r2, [r7, #4]
10002124:	2337      	movs	r3, #55	; 0x37
10002126:	5cd3      	ldrb	r3, [r2, r3]
10002128:	009b      	lsls	r3, r3, #2
1000212a:	60fb      	str	r3, [r7, #12]
        HandlePtr->CC4yKernRegsPtr->GCSS |=	((uint32_t)0x01 << Temp1);
1000212c:	687b      	ldr	r3, [r7, #4]
1000212e:	695b      	ldr	r3, [r3, #20]
10002130:	687a      	ldr	r2, [r7, #4]
10002132:	6952      	ldr	r2, [r2, #20]
10002134:	6911      	ldr	r1, [r2, #16]
10002136:	68fa      	ldr	r2, [r7, #12]
10002138:	2001      	movs	r0, #1
1000213a:	1c04      	adds	r4, r0, #0
1000213c:	4094      	lsls	r4, r2
1000213e:	1c22      	adds	r2, r4, #0
10002140:	430a      	orrs	r2, r1
10002142:	611a      	str	r2, [r3, #16]
        if (HandlePtr->kTimerConcatenation == (uint8_t)SET)
10002144:	687a      	ldr	r2, [r7, #4]
10002146:	2320      	movs	r3, #32
10002148:	5cd3      	ldrb	r3, [r2, r3]
1000214a:	2b01      	cmp	r3, #1
1000214c:	d110      	bne.n	10002170 <PWMSP001_SetPeriod+0xb4>
        {
          /*Request shadow transfer for the First slice*/
          Temp1 = (uint32_t)CCU4_GCSS_S0SE_Pos + (4U * (uint32_t)HandlePtr->SecondSlice);
1000214e:	687a      	ldr	r2, [r7, #4]
10002150:	2338      	movs	r3, #56	; 0x38
10002152:	5cd3      	ldrb	r3, [r2, r3]
10002154:	009b      	lsls	r3, r3, #2
10002156:	60fb      	str	r3, [r7, #12]
          HandlePtr->CC4yKernRegsPtr->GCSS |= ((uint32_t)0x01 << Temp1);
10002158:	687b      	ldr	r3, [r7, #4]
1000215a:	695b      	ldr	r3, [r3, #20]
1000215c:	687a      	ldr	r2, [r7, #4]
1000215e:	6952      	ldr	r2, [r2, #20]
10002160:	6911      	ldr	r1, [r2, #16]
10002162:	68fa      	ldr	r2, [r7, #12]
10002164:	2001      	movs	r0, #1
10002166:	1c04      	adds	r4, r0, #0
10002168:	4094      	lsls	r4, r2
1000216a:	1c22      	adds	r2, r4, #0
1000216c:	430a      	orrs	r2, r1
1000216e:	611a      	str	r2, [r3, #16]
        }/*End Of if (HandlePtr->kTimerConcatenation == (uint8_t)SET)*/
        Status = (uint32_t)DAVEApp_SUCCESS;
10002170:	2300      	movs	r3, #0
10002172:	617b      	str	r3, [r7, #20]
      }
    }
  }
  return Status;
10002174:	697b      	ldr	r3, [r7, #20]
}
10002176:	1c18      	adds	r0, r3, #0
10002178:	46bd      	mov	sp, r7
1000217a:	b007      	add	sp, #28
1000217c:	bd90      	pop	{r4, r7, pc}
1000217e:	46c0      	nop			; (mov r8, r8)

10002180 <PWMSP001_SetPwmFreqAndDutyCycle>:
(
    const PWMSP001_HandleType* HandlePtr,
    float PwmFreq,
    float Duty
)
{
10002180:	b580      	push	{r7, lr}
10002182:	b088      	sub	sp, #32
10002184:	af00      	add	r7, sp, #0
10002186:	60f8      	str	r0, [r7, #12]
10002188:	60b9      	str	r1, [r7, #8]
1000218a:	607a      	str	r2, [r7, #4]
  status_t Status = (uint32_t)PWMSP001_OPER_NOT_ALLOWED_ERROR;
1000218c:	2301      	movs	r3, #1
1000218e:	61fb      	str	r3, [r7, #28]
  uint32_t PwmTime = 0UL;
10002190:	2300      	movs	r3, #0
10002192:	61bb      	str	r3, [r7, #24]
  float fPwmFreq ;
  /*<<<DD_PWMSP001_API_16_1>>>*/
  if ((HandlePtr->DynamicDataType->StateType != PWMSP001_UNINITIALIZED))
10002194:	68fb      	ldr	r3, [r7, #12]
10002196:	6bdb      	ldr	r3, [r3, #60]	; 0x3c
10002198:	781b      	ldrb	r3, [r3, #0]
1000219a:	2b00      	cmp	r3, #0
1000219c:	d068      	beq.n	10002270 <PWMSP001_SetPwmFreqAndDutyCycle+0xf0>
  {
  if((PwmFreq == (float)0) || (Duty > (float)100) || (Duty < (float)0))
1000219e:	68b8      	ldr	r0, [r7, #8]
100021a0:	2100      	movs	r1, #0
100021a2:	f001 f865 	bl	10003270 <__aeabi_fcmpeq>
100021a6:	1c03      	adds	r3, r0, #0
100021a8:	2b00      	cmp	r3, #0
100021aa:	d10d      	bne.n	100021c8 <PWMSP001_SetPwmFreqAndDutyCycle+0x48>
100021ac:	6878      	ldr	r0, [r7, #4]
100021ae:	4933      	ldr	r1, [pc, #204]	; (1000227c <PWMSP001_SetPwmFreqAndDutyCycle+0xfc>)
100021b0:	f001 f878 	bl	100032a4 <__aeabi_fcmpgt>
100021b4:	1c03      	adds	r3, r0, #0
100021b6:	2b00      	cmp	r3, #0
100021b8:	d106      	bne.n	100021c8 <PWMSP001_SetPwmFreqAndDutyCycle+0x48>
100021ba:	6878      	ldr	r0, [r7, #4]
100021bc:	2100      	movs	r1, #0
100021be:	f001 f85d 	bl	1000327c <__aeabi_fcmplt>
100021c2:	1c03      	adds	r3, r0, #0
100021c4:	2b00      	cmp	r3, #0
100021c6:	d002      	beq.n	100021ce <PWMSP001_SetPwmFreqAndDutyCycle+0x4e>
  {
    Status = (uint32_t)PWMSP001_INVALID_PARAM_ERROR;
100021c8:	2302      	movs	r3, #2
100021ca:	61fb      	str	r3, [r7, #28]
100021cc:	e050      	b.n	10002270 <PWMSP001_SetPwmFreqAndDutyCycle+0xf0>
  }
  else
  {
      fPwmFreq=(float)HandlePtr->kResolution;
100021ce:	68fb      	ldr	r3, [r7, #12]
100021d0:	685b      	ldr	r3, [r3, #4]
100021d2:	617b      	str	r3, [r7, #20]
	  fPwmFreq=(float)fPwmFreq*PwmFreq;
100021d4:	6978      	ldr	r0, [r7, #20]
100021d6:	68b9      	ldr	r1, [r7, #8]
100021d8:	f001 fa82 	bl	100036e0 <__aeabi_fmul>
100021dc:	1c03      	adds	r3, r0, #0
100021de:	617b      	str	r3, [r7, #20]
	  PwmTime = (uint32_t)((float)1000000000.00 / fPwmFreq);
100021e0:	4827      	ldr	r0, [pc, #156]	; (10002280 <PWMSP001_SetPwmFreqAndDutyCycle+0x100>)
100021e2:	6979      	ldr	r1, [r7, #20]
100021e4:	f001 f88a 	bl	100032fc <__aeabi_fdiv>
100021e8:	1c03      	adds	r3, r0, #0
100021ea:	1c18      	adds	r0, r3, #0
100021ec:	f001 f86e 	bl	100032cc <__aeabi_f2uiz>
100021f0:	1c03      	adds	r3, r0, #0
100021f2:	61bb      	str	r3, [r7, #24]
    /*<<<DD_PWMSP001_API_16_2>>>*/
    if(HandlePtr->kTimerConcatenation == (uint8_t)RESET)
100021f4:	68fa      	ldr	r2, [r7, #12]
100021f6:	2320      	movs	r3, #32
100021f8:	5cd3      	ldrb	r3, [r2, r3]
100021fa:	2b00      	cmp	r3, #0
100021fc:	d11a      	bne.n	10002234 <PWMSP001_SetPwmFreqAndDutyCycle+0xb4>
    {
      if(PwmTime > PWMSP001_MAX_VALUE)
100021fe:	69ba      	ldr	r2, [r7, #24]
10002200:	4b20      	ldr	r3, [pc, #128]	; (10002284 <PWMSP001_SetPwmFreqAndDutyCycle+0x104>)
10002202:	429a      	cmp	r2, r3
10002204:	d902      	bls.n	1000220c <PWMSP001_SetPwmFreqAndDutyCycle+0x8c>
      {
        Status = (uint32_t)PWMSP001_INVALID_PARAM_ERROR;
10002206:	2302      	movs	r3, #2
10002208:	61fb      	str	r3, [r7, #28]
1000220a:	e027      	b.n	1000225c <PWMSP001_SetPwmFreqAndDutyCycle+0xdc>
      }
      else
      {
        if(HandlePtr->CountingModeType == PWMSP001_EDGE_ALIGNED)
1000220c:	68fa      	ldr	r2, [r7, #12]
1000220e:	2336      	movs	r3, #54	; 0x36
10002210:	5cd3      	ldrb	r3, [r2, r3]
10002212:	2b00      	cmp	r3, #0
10002214:	d105      	bne.n	10002222 <PWMSP001_SetPwmFreqAndDutyCycle+0xa2>
        {
          HandlePtr->CC4yRegsPtr->PRS = PwmTime -(uint32_t)1;
10002216:	68fb      	ldr	r3, [r7, #12]
10002218:	699b      	ldr	r3, [r3, #24]
1000221a:	69ba      	ldr	r2, [r7, #24]
1000221c:	3a01      	subs	r2, #1
1000221e:	635a      	str	r2, [r3, #52]	; 0x34
10002220:	e005      	b.n	1000222e <PWMSP001_SetPwmFreqAndDutyCycle+0xae>
        }
        else
        {
          HandlePtr->CC4yRegsPtr->PRS = (PwmTime - (uint32_t)1) >> (uint32_t)1;
10002222:	68fb      	ldr	r3, [r7, #12]
10002224:	699b      	ldr	r3, [r3, #24]
10002226:	69ba      	ldr	r2, [r7, #24]
10002228:	3a01      	subs	r2, #1
1000222a:	0852      	lsrs	r2, r2, #1
1000222c:	635a      	str	r2, [r3, #52]	; 0x34
        }
        Status = (uint32_t)DAVEApp_SUCCESS;
1000222e:	2300      	movs	r3, #0
10002230:	61fb      	str	r3, [r7, #28]
10002232:	e013      	b.n	1000225c <PWMSP001_SetPwmFreqAndDutyCycle+0xdc>
      }
    }
    else if((HandlePtr->kTimerConcatenation == (uint8_t)SET) &&\
10002234:	68fa      	ldr	r2, [r7, #12]
10002236:	2320      	movs	r3, #32
10002238:	5cd3      	ldrb	r3, [r2, r3]
1000223a:	2b01      	cmp	r3, #1
1000223c:	d106      	bne.n	1000224c <PWMSP001_SetPwmFreqAndDutyCycle+0xcc>
1000223e:	69ba      	ldr	r2, [r7, #24]
10002240:	4b10      	ldr	r3, [pc, #64]	; (10002284 <PWMSP001_SetPwmFreqAndDutyCycle+0x104>)
10002242:	429a      	cmp	r2, r3
10002244:	d802      	bhi.n	1000224c <PWMSP001_SetPwmFreqAndDutyCycle+0xcc>
    		                                   (PwmTime <= PWMSP001_MAX_VALUE))
    {
    	Status = (uint32_t)PWMSP001_INVALID_PARAM_ERROR;
10002246:	2302      	movs	r3, #2
10002248:	61fb      	str	r3, [r7, #28]
1000224a:	e007      	b.n	1000225c <PWMSP001_SetPwmFreqAndDutyCycle+0xdc>
    }
    /*<<<DD_PWMSP001_API_16_3>>>*/
    else
    {
      Status = PWMSP001_lSetPwmFreqTimerConcat(HandlePtr, PwmTime);
1000224c:	68fa      	ldr	r2, [r7, #12]
1000224e:	69bb      	ldr	r3, [r7, #24]
10002250:	1c10      	adds	r0, r2, #0
10002252:	1c19      	adds	r1, r3, #0
10002254:	f000 f8a4 	bl	100023a0 <PWMSP001_lSetPwmFreqTimerConcat>
10002258:	1c03      	adds	r3, r0, #0
1000225a:	61fb      	str	r3, [r7, #28]
    }
    if(Status == (uint32_t)DAVEApp_SUCCESS)
1000225c:	69fb      	ldr	r3, [r7, #28]
1000225e:	2b00      	cmp	r3, #0
10002260:	d106      	bne.n	10002270 <PWMSP001_SetPwmFreqAndDutyCycle+0xf0>
    {
     /* Call the function as per configured mode */
     HandlePtr->SetDutyFuncPtr((const void*)HandlePtr, Duty);
10002262:	68fb      	ldr	r3, [r7, #12]
10002264:	6c5b      	ldr	r3, [r3, #68]	; 0x44
10002266:	68f9      	ldr	r1, [r7, #12]
10002268:	687a      	ldr	r2, [r7, #4]
1000226a:	1c08      	adds	r0, r1, #0
1000226c:	1c11      	adds	r1, r2, #0
1000226e:	4798      	blx	r3
    }
   }
  }
  return (Status);
10002270:	69fb      	ldr	r3, [r7, #28]
}
10002272:	1c18      	adds	r0, r3, #0
10002274:	46bd      	mov	sp, r7
10002276:	b008      	add	sp, #32
10002278:	bd80      	pop	{r7, pc}
1000227a:	46c0      	nop			; (mov r8, r8)
1000227c:	42c80000 	.word	0x42c80000
10002280:	4e6e6b28 	.word	0x4e6e6b28
10002284:	0000ffff 	.word	0x0000ffff

10002288 <PWMSP001_SetPwmFreq>:
status_t PWMSP001_SetPwmFreq
(
    const PWMSP001_HandleType* HandlePtr,
    float PwmFreq
)
{
10002288:	b5b0      	push	{r4, r5, r7, lr}
1000228a:	b088      	sub	sp, #32
1000228c:	af00      	add	r7, sp, #0
1000228e:	6078      	str	r0, [r7, #4]
10002290:	6039      	str	r1, [r7, #0]
  status_t Status = (uint32_t)PWMSP001_OPER_NOT_ALLOWED_ERROR;
10002292:	2301      	movs	r3, #1
10002294:	61fb      	str	r3, [r7, #28]
  uint32_t PwmTime = 0x00U;
10002296:	2300      	movs	r3, #0
10002298:	61bb      	str	r3, [r7, #24]
  uint32_t Temp1;
  uint32_t Temp2;
  uint32_t Temp3;
  float fPwmFreq ;
  if ((HandlePtr->DynamicDataType->StateType != PWMSP001_UNINITIALIZED))
1000229a:	687b      	ldr	r3, [r7, #4]
1000229c:	6bdb      	ldr	r3, [r3, #60]	; 0x3c
1000229e:	781b      	ldrb	r3, [r3, #0]
100022a0:	2b00      	cmp	r3, #0
100022a2:	d100      	bne.n	100022a6 <PWMSP001_SetPwmFreq+0x1e>
100022a4:	e072      	b.n	1000238c <PWMSP001_SetPwmFreq+0x104>
  {
  if(PwmFreq == (float)0)
100022a6:	6838      	ldr	r0, [r7, #0]
100022a8:	2100      	movs	r1, #0
100022aa:	f000 ffe1 	bl	10003270 <__aeabi_fcmpeq>
100022ae:	1c03      	adds	r3, r0, #0
100022b0:	2b00      	cmp	r3, #0
100022b2:	d002      	beq.n	100022ba <PWMSP001_SetPwmFreq+0x32>
  {
    Status = (uint32_t)PWMSP001_INVALID_PARAM_ERROR;
100022b4:	2302      	movs	r3, #2
100022b6:	61fb      	str	r3, [r7, #28]
100022b8:	e068      	b.n	1000238c <PWMSP001_SetPwmFreq+0x104>
  }
  else
  {
	  fPwmFreq=(float)HandlePtr->kResolution;
100022ba:	687b      	ldr	r3, [r7, #4]
100022bc:	685b      	ldr	r3, [r3, #4]
100022be:	617b      	str	r3, [r7, #20]
	  fPwmFreq=(float)fPwmFreq*PwmFreq;
100022c0:	6978      	ldr	r0, [r7, #20]
100022c2:	6839      	ldr	r1, [r7, #0]
100022c4:	f001 fa0c 	bl	100036e0 <__aeabi_fmul>
100022c8:	1c03      	adds	r3, r0, #0
100022ca:	617b      	str	r3, [r7, #20]
	  PwmTime = (uint32_t)((float)1000000000.00 / fPwmFreq);
100022cc:	4832      	ldr	r0, [pc, #200]	; (10002398 <PWMSP001_SetPwmFreq+0x110>)
100022ce:	6979      	ldr	r1, [r7, #20]
100022d0:	f001 f814 	bl	100032fc <__aeabi_fdiv>
100022d4:	1c03      	adds	r3, r0, #0
100022d6:	1c18      	adds	r0, r3, #0
100022d8:	f000 fff8 	bl	100032cc <__aeabi_f2uiz>
100022dc:	1c03      	adds	r3, r0, #0
100022de:	61bb      	str	r3, [r7, #24]
    /*<<<DD_PWMSP001_API_16_2>>>*/
    if(HandlePtr->kTimerConcatenation == (uint8_t)RESET)
100022e0:	687a      	ldr	r2, [r7, #4]
100022e2:	2320      	movs	r3, #32
100022e4:	5cd3      	ldrb	r3, [r2, r3]
100022e6:	2b00      	cmp	r3, #0
100022e8:	d12b      	bne.n	10002342 <PWMSP001_SetPwmFreq+0xba>
    {
      if(PwmTime > PWMSP001_MAX_VALUE)
100022ea:	69ba      	ldr	r2, [r7, #24]
100022ec:	4b2b      	ldr	r3, [pc, #172]	; (1000239c <PWMSP001_SetPwmFreq+0x114>)
100022ee:	429a      	cmp	r2, r3
100022f0:	d902      	bls.n	100022f8 <PWMSP001_SetPwmFreq+0x70>
      {
        Status = (uint32_t)PWMSP001_INVALID_PARAM_ERROR;
100022f2:	2302      	movs	r3, #2
100022f4:	61fb      	str	r3, [r7, #28]
100022f6:	e049      	b.n	1000238c <PWMSP001_SetPwmFreq+0x104>
      }
      else
      {
        if(HandlePtr->CountingModeType == PWMSP001_EDGE_ALIGNED)
100022f8:	687a      	ldr	r2, [r7, #4]
100022fa:	2336      	movs	r3, #54	; 0x36
100022fc:	5cd3      	ldrb	r3, [r2, r3]
100022fe:	2b00      	cmp	r3, #0
10002300:	d105      	bne.n	1000230e <PWMSP001_SetPwmFreq+0x86>
        {
          HandlePtr->CC4yRegsPtr->PRS = PwmTime -(uint32_t)1;
10002302:	687b      	ldr	r3, [r7, #4]
10002304:	699b      	ldr	r3, [r3, #24]
10002306:	69ba      	ldr	r2, [r7, #24]
10002308:	3a01      	subs	r2, #1
1000230a:	635a      	str	r2, [r3, #52]	; 0x34
1000230c:	e005      	b.n	1000231a <PWMSP001_SetPwmFreq+0x92>
        }
        else
        {
          HandlePtr->CC4yRegsPtr->PRS = (PwmTime - (uint32_t)1) >> (uint32_t)1;
1000230e:	687b      	ldr	r3, [r7, #4]
10002310:	699b      	ldr	r3, [r3, #24]
10002312:	69ba      	ldr	r2, [r7, #24]
10002314:	3a01      	subs	r2, #1
10002316:	0852      	lsrs	r2, r2, #1
10002318:	635a      	str	r2, [r3, #52]	; 0x34
        }
        /** Update dynamic handle*/
        Temp1 = (uint32_t)CCU4_GCSS_S0SE_Pos + ((uint32_t)4*(uint32_t)HandlePtr->FirstSlice); 
1000231a:	687a      	ldr	r2, [r7, #4]
1000231c:	2337      	movs	r3, #55	; 0x37
1000231e:	5cd3      	ldrb	r3, [r2, r3]
10002320:	009b      	lsls	r3, r3, #2
10002322:	613b      	str	r3, [r7, #16]
        HandlePtr->CC4yKernRegsPtr->GCSS |= ((uint32_t)0x01 << Temp1 );
10002324:	687b      	ldr	r3, [r7, #4]
10002326:	695b      	ldr	r3, [r3, #20]
10002328:	687a      	ldr	r2, [r7, #4]
1000232a:	6952      	ldr	r2, [r2, #20]
1000232c:	6911      	ldr	r1, [r2, #16]
1000232e:	693a      	ldr	r2, [r7, #16]
10002330:	2001      	movs	r0, #1
10002332:	1c04      	adds	r4, r0, #0
10002334:	4094      	lsls	r4, r2
10002336:	1c22      	adds	r2, r4, #0
10002338:	430a      	orrs	r2, r1
1000233a:	611a      	str	r2, [r3, #16]
        Status = (uint32_t)DAVEApp_SUCCESS;
1000233c:	2300      	movs	r3, #0
1000233e:	61fb      	str	r3, [r7, #28]
10002340:	e024      	b.n	1000238c <PWMSP001_SetPwmFreq+0x104>
      }
    }
    /*<<<DD_PWMSP001_API_16_3>>>*/
    else
    {
      Status = PWMSP001_lSetPwmFreqTimerConcat(HandlePtr, PwmTime);
10002342:	687a      	ldr	r2, [r7, #4]
10002344:	69bb      	ldr	r3, [r7, #24]
10002346:	1c10      	adds	r0, r2, #0
10002348:	1c19      	adds	r1, r3, #0
1000234a:	f000 f829 	bl	100023a0 <PWMSP001_lSetPwmFreqTimerConcat>
1000234e:	1c03      	adds	r3, r0, #0
10002350:	61fb      	str	r3, [r7, #28]
      if(Status == (uint32_t)DAVEApp_SUCCESS)
10002352:	69fb      	ldr	r3, [r7, #28]
10002354:	2b00      	cmp	r3, #0
10002356:	d119      	bne.n	1000238c <PWMSP001_SetPwmFreq+0x104>
      {
        Temp2 = (uint32_t)CCU4_GCSS_S0SE_Pos + (4U * (uint32_t)HandlePtr->FirstSlice);
10002358:	687a      	ldr	r2, [r7, #4]
1000235a:	2337      	movs	r3, #55	; 0x37
1000235c:	5cd3      	ldrb	r3, [r2, r3]
1000235e:	009b      	lsls	r3, r3, #2
10002360:	60fb      	str	r3, [r7, #12]
        Temp3 = (uint32_t)CCU4_GCSS_S0SE_Pos + (4U * (uint32_t)HandlePtr->SecondSlice);
10002362:	687a      	ldr	r2, [r7, #4]
10002364:	2338      	movs	r3, #56	; 0x38
10002366:	5cd3      	ldrb	r3, [r2, r3]
10002368:	009b      	lsls	r3, r3, #2
1000236a:	60bb      	str	r3, [r7, #8]
        HandlePtr->CC4yKernRegsPtr->GCSS |= (((uint32_t)0x01 << Temp2) | \
1000236c:	687b      	ldr	r3, [r7, #4]
1000236e:	695b      	ldr	r3, [r3, #20]
10002370:	687a      	ldr	r2, [r7, #4]
10002372:	6952      	ldr	r2, [r2, #20]
10002374:	6911      	ldr	r1, [r2, #16]
10002376:	68fa      	ldr	r2, [r7, #12]
10002378:	2001      	movs	r0, #1
1000237a:	4090      	lsls	r0, r2
            ((uint32_t)0x01 << Temp3));
1000237c:	68ba      	ldr	r2, [r7, #8]
1000237e:	2401      	movs	r4, #1
10002380:	1c25      	adds	r5, r4, #0
10002382:	4095      	lsls	r5, r2
10002384:	1c2a      	adds	r2, r5, #0
      Status = PWMSP001_lSetPwmFreqTimerConcat(HandlePtr, PwmTime);
      if(Status == (uint32_t)DAVEApp_SUCCESS)
      {
        Temp2 = (uint32_t)CCU4_GCSS_S0SE_Pos + (4U * (uint32_t)HandlePtr->FirstSlice);
        Temp3 = (uint32_t)CCU4_GCSS_S0SE_Pos + (4U * (uint32_t)HandlePtr->SecondSlice);
        HandlePtr->CC4yKernRegsPtr->GCSS |= (((uint32_t)0x01 << Temp2) | \
10002386:	4302      	orrs	r2, r0
10002388:	430a      	orrs	r2, r1
1000238a:	611a      	str	r2, [r3, #16]
            ((uint32_t)0x01 << Temp3));
      }
    }
  }
 }
  return (Status);
1000238c:	69fb      	ldr	r3, [r7, #28]
}
1000238e:	1c18      	adds	r0, r3, #0
10002390:	46bd      	mov	sp, r7
10002392:	b008      	add	sp, #32
10002394:	bdb0      	pop	{r4, r5, r7, pc}
10002396:	46c0      	nop			; (mov r8, r8)
10002398:	4e6e6b28 	.word	0x4e6e6b28
1000239c:	0000ffff 	.word	0x0000ffff

100023a0 <PWMSP001_lSetPwmFreqTimerConcat>:
status_t PWMSP001_lSetPwmFreqTimerConcat
(
    const PWMSP001_HandleType* HandlePtr,
    uint32_t PwmTime
)
{
100023a0:	b580      	push	{r7, lr}
100023a2:	b088      	sub	sp, #32
100023a4:	af00      	add	r7, sp, #0
100023a6:	6078      	str	r0, [r7, #4]
100023a8:	6039      	str	r1, [r7, #0]
  uint32_t PeriodVal = PwmTime;
100023aa:	683b      	ldr	r3, [r7, #0]
100023ac:	61fb      	str	r3, [r7, #28]
  uint32_t MsbPeriodVal, LsbPeriodVal;
  uint8_t Count = 0x00U;
100023ae:	1c3b      	adds	r3, r7, #0
100023b0:	3313      	adds	r3, #19
100023b2:	2200      	movs	r2, #0
100023b4:	701a      	strb	r2, [r3, #0]
  status_t Status = (uint32_t)PWMSP001_OPER_NOT_ALLOWED_ERROR;
100023b6:	2301      	movs	r3, #1
100023b8:	60fb      	str	r3, [r7, #12]

  if(PwmTime >= PWMSP001_TC_MAX_VALUE)
100023ba:	683b      	ldr	r3, [r7, #0]
100023bc:	3301      	adds	r3, #1
100023be:	d102      	bne.n	100023c6 <PWMSP001_lSetPwmFreqTimerConcat+0x26>
  {
    Status = (uint32_t)PWMSP001_INVALID_PARAM_ERROR;
100023c0:	2302      	movs	r3, #2
100023c2:	60fb      	str	r3, [r7, #12]
100023c4:	e03a      	b.n	1000243c <PWMSP001_lSetPwmFreqTimerConcat+0x9c>
  }

  else
  {

    if(PwmTime > PWMSP001_MAX_VALUE)
100023c6:	683a      	ldr	r2, [r7, #0]
100023c8:	4b1f      	ldr	r3, [pc, #124]	; (10002448 <PWMSP001_lSetPwmFreqTimerConcat+0xa8>)
100023ca:	429a      	cmp	r2, r3
100023cc:	d919      	bls.n	10002402 <PWMSP001_lSetPwmFreqTimerConcat+0x62>
    {
      do
      {
        PeriodVal = PeriodVal >> 1;
100023ce:	69fb      	ldr	r3, [r7, #28]
100023d0:	085b      	lsrs	r3, r3, #1
100023d2:	61fb      	str	r3, [r7, #28]
        Count++;
100023d4:	1c3b      	adds	r3, r7, #0
100023d6:	3313      	adds	r3, #19
100023d8:	1c3a      	adds	r2, r7, #0
100023da:	3213      	adds	r2, #19
100023dc:	7812      	ldrb	r2, [r2, #0]
100023de:	3201      	adds	r2, #1
100023e0:	701a      	strb	r2, [r3, #0]
      }while(PeriodVal >= PWMSP001_MAX_VALUE);
100023e2:	69fa      	ldr	r2, [r7, #28]
100023e4:	4b19      	ldr	r3, [pc, #100]	; (1000244c <PWMSP001_lSetPwmFreqTimerConcat+0xac>)
100023e6:	429a      	cmp	r2, r3
100023e8:	d8f1      	bhi.n	100023ce <PWMSP001_lSetPwmFreqTimerConcat+0x2e>

      MsbPeriodVal = ((uint32_t)1 << Count) -(uint32_t)1;
100023ea:	1c3b      	adds	r3, r7, #0
100023ec:	3313      	adds	r3, #19
100023ee:	781b      	ldrb	r3, [r3, #0]
100023f0:	2201      	movs	r2, #1
100023f2:	1c11      	adds	r1, r2, #0
100023f4:	4099      	lsls	r1, r3
100023f6:	1c0b      	adds	r3, r1, #0
100023f8:	3b01      	subs	r3, #1
100023fa:	61bb      	str	r3, [r7, #24]
      LsbPeriodVal = PeriodVal;
100023fc:	69fb      	ldr	r3, [r7, #28]
100023fe:	617b      	str	r3, [r7, #20]
10002400:	e003      	b.n	1000240a <PWMSP001_lSetPwmFreqTimerConcat+0x6a>
    }
    else
    {
      LsbPeriodVal = PwmTime;
10002402:	683b      	ldr	r3, [r7, #0]
10002404:	617b      	str	r3, [r7, #20]
      MsbPeriodVal = (uint32_t)0x00;
10002406:	2300      	movs	r3, #0
10002408:	61bb      	str	r3, [r7, #24]
    }

    /*<<<DD_PWMSP001_API_16_4>>>*/
    if(HandlePtr->CountingModeType == PWMSP001_CENTER_ALIGNED)
1000240a:	687a      	ldr	r2, [r7, #4]
1000240c:	2336      	movs	r3, #54	; 0x36
1000240e:	5cd3      	ldrb	r3, [r2, r3]
10002410:	2b01      	cmp	r3, #1
10002412:	d105      	bne.n	10002420 <PWMSP001_lSetPwmFreqTimerConcat+0x80>
    {
      MsbPeriodVal = MsbPeriodVal >> (uint32_t)1;
10002414:	69bb      	ldr	r3, [r7, #24]
10002416:	085b      	lsrs	r3, r3, #1
10002418:	61bb      	str	r3, [r7, #24]
      LsbPeriodVal = LsbPeriodVal >> (uint32_t)1;
1000241a:	697b      	ldr	r3, [r7, #20]
1000241c:	085b      	lsrs	r3, r3, #1
1000241e:	617b      	str	r3, [r7, #20]
    }

    HandlePtr->CC4yRegsPtr->PRS = LsbPeriodVal & 0xFFFFU;
10002420:	687b      	ldr	r3, [r7, #4]
10002422:	699b      	ldr	r3, [r3, #24]
10002424:	697a      	ldr	r2, [r7, #20]
10002426:	0412      	lsls	r2, r2, #16
10002428:	0c12      	lsrs	r2, r2, #16
1000242a:	635a      	str	r2, [r3, #52]	; 0x34
    HandlePtr->CC4yRegs1Ptr->PRS =MsbPeriodVal & 0xFFFFU;
1000242c:	687b      	ldr	r3, [r7, #4]
1000242e:	69db      	ldr	r3, [r3, #28]
10002430:	69ba      	ldr	r2, [r7, #24]
10002432:	0412      	lsls	r2, r2, #16
10002434:	0c12      	lsrs	r2, r2, #16
10002436:	635a      	str	r2, [r3, #52]	; 0x34

    /*<<<DD_PWMSP001_API_16_5>>>*/
    Status = (uint32_t)DAVEApp_SUCCESS;
10002438:	2300      	movs	r3, #0
1000243a:	60fb      	str	r3, [r7, #12]
  }
  return (Status);
1000243c:	68fb      	ldr	r3, [r7, #12]
}
1000243e:	1c18      	adds	r0, r3, #0
10002440:	46bd      	mov	sp, r7
10002442:	b008      	add	sp, #32
10002444:	bd80      	pop	{r7, pc}
10002446:	46c0      	nop			; (mov r8, r8)
10002448:	0000ffff 	.word	0x0000ffff
1000244c:	0000fffe 	.word	0x0000fffe

10002450 <PWMSP001_SetTimerVal>:
status_t PWMSP001_SetTimerVal
(
    const PWMSP001_HandleType* HandlePtr,
    uint32_t TimerVal
)
{
10002450:	b580      	push	{r7, lr}
10002452:	b084      	sub	sp, #16
10002454:	af00      	add	r7, sp, #0
10002456:	6078      	str	r0, [r7, #4]
10002458:	6039      	str	r1, [r7, #0]
  status_t Status = (uint32_t)PWMSP001_OPER_NOT_ALLOWED_ERROR;
1000245a:	2301      	movs	r3, #1
1000245c:	60fb      	str	r3, [r7, #12]
  /*<<<DD_PWMSP001_API_7_1>>>*/
  if ((HandlePtr->DynamicDataType->StateType != PWMSP001_INITIALIZED) &&
1000245e:	687b      	ldr	r3, [r7, #4]
10002460:	6bdb      	ldr	r3, [r3, #60]	; 0x3c
10002462:	781b      	ldrb	r3, [r3, #0]
10002464:	2b01      	cmp	r3, #1
10002466:	d004      	beq.n	10002472 <PWMSP001_SetTimerVal+0x22>
      (HandlePtr->DynamicDataType->StateType != PWMSP001_STOPPED))
10002468:	687b      	ldr	r3, [r7, #4]
1000246a:	6bdb      	ldr	r3, [r3, #60]	; 0x3c
1000246c:	781b      	ldrb	r3, [r3, #0]
    uint32_t TimerVal
)
{
  status_t Status = (uint32_t)PWMSP001_OPER_NOT_ALLOWED_ERROR;
  /*<<<DD_PWMSP001_API_7_1>>>*/
  if ((HandlePtr->DynamicDataType->StateType != PWMSP001_INITIALIZED) &&
1000246e:	2b03      	cmp	r3, #3
10002470:	d111      	bne.n	10002496 <PWMSP001_SetTimerVal+0x46>
	DBG002_INFO(APP_GID, DBG002_MESSAGEID_LITERAL, PWMSP001_STATUS_LEN, &Status);
  }
  /*<<<DD_PWMSP001_API_7_1>>>*/
  else
  {
    HandlePtr->CC4yRegsPtr->TIMER = (uint32_t)TimerVal&0xFFFFU;
10002472:	687b      	ldr	r3, [r7, #4]
10002474:	699b      	ldr	r3, [r3, #24]
10002476:	683a      	ldr	r2, [r7, #0]
10002478:	0412      	lsls	r2, r2, #16
1000247a:	0c12      	lsrs	r2, r2, #16
1000247c:	671a      	str	r2, [r3, #112]	; 0x70
    if (HandlePtr->kTimerConcatenation == (uint8_t)SET)
1000247e:	687a      	ldr	r2, [r7, #4]
10002480:	2320      	movs	r3, #32
10002482:	5cd3      	ldrb	r3, [r2, r3]
10002484:	2b01      	cmp	r3, #1
10002486:	d104      	bne.n	10002492 <PWMSP001_SetTimerVal+0x42>
    {
      HandlePtr->CC4yRegs1Ptr->TIMER = (uint32_t)((uint32_t)TimerVal>>16U)&0xFFFFU;
10002488:	687b      	ldr	r3, [r7, #4]
1000248a:	69db      	ldr	r3, [r3, #28]
1000248c:	683a      	ldr	r2, [r7, #0]
1000248e:	0c12      	lsrs	r2, r2, #16
10002490:	671a      	str	r2, [r3, #112]	; 0x70
    }
    Status = (uint32_t)DAVEApp_SUCCESS;
10002492:	2300      	movs	r3, #0
10002494:	60fb      	str	r3, [r7, #12]
  }
  return Status;
10002496:	68fb      	ldr	r3, [r7, #12]
}
10002498:	1c18      	adds	r0, r3, #0
1000249a:	46bd      	mov	sp, r7
1000249c:	b004      	add	sp, #16
1000249e:	bd80      	pop	{r7, pc}

100024a0 <PWMSP001_GetTimerStatus>:
status_t PWMSP001_GetTimerStatus
(
    const PWMSP001_HandleType* HandlePtr,
    uint32_t* TimerStatus
)
{
100024a0:	b580      	push	{r7, lr}
100024a2:	b084      	sub	sp, #16
100024a4:	af00      	add	r7, sp, #0
100024a6:	6078      	str	r0, [r7, #4]
100024a8:	6039      	str	r1, [r7, #0]
  status_t Status = (uint32_t)PWMSP001_OPER_NOT_ALLOWED_ERROR;
100024aa:	2301      	movs	r3, #1
100024ac:	60fb      	str	r3, [r7, #12]
  uint32_t SecondTimerStatus = (uint32_t)0;
100024ae:	2300      	movs	r3, #0
100024b0:	60bb      	str	r3, [r7, #8]
  /*<<<DD_PWMSP001_API_8_1>>>*/
  if (HandlePtr->DynamicDataType->StateType == PWMSP001_UNINITIALIZED)
100024b2:	687b      	ldr	r3, [r7, #4]
100024b4:	6bdb      	ldr	r3, [r3, #60]	; 0x3c
100024b6:	781b      	ldrb	r3, [r3, #0]
100024b8:	2b00      	cmp	r3, #0
100024ba:	d01d      	beq.n	100024f8 <PWMSP001_GetTimerStatus+0x58>
	DBG002_INFO(APP_GID, DBG002_MESSAGEID_LITERAL, PWMSP001_STATUS_LEN, &Status);
  }
  /*<<<DD_PWMSP001_API_8_2>>>*/
  else
  {
    if (HandlePtr->kTimerConcatenation == (uint8_t)SET)
100024bc:	687a      	ldr	r2, [r7, #4]
100024be:	2320      	movs	r3, #32
100024c0:	5cd3      	ldrb	r3, [r2, r3]
100024c2:	2b01      	cmp	r3, #1
100024c4:	d10f      	bne.n	100024e6 <PWMSP001_GetTimerStatus+0x46>
    {
      SecondTimerStatus = (uint32_t)(RD_REG(HandlePtr->CC4yRegs1Ptr->TCST,
100024c6:	687b      	ldr	r3, [r7, #4]
100024c8:	69db      	ldr	r3, [r3, #28]
100024ca:	689a      	ldr	r2, [r3, #8]
100024cc:	2301      	movs	r3, #1
100024ce:	4013      	ands	r3, r2
100024d0:	60bb      	str	r3, [r7, #8]
          CCU4_CC4_TCST_TRB_Msk, CCU4_CC4_TCST_TRB_Pos));
      *TimerStatus = (uint32_t)((RD_REG(HandlePtr->CC4yRegsPtr->TCST,
100024d2:	687b      	ldr	r3, [r7, #4]
100024d4:	699b      	ldr	r3, [r3, #24]
100024d6:	689b      	ldr	r3, [r3, #8]
100024d8:	68ba      	ldr	r2, [r7, #8]
100024da:	401a      	ands	r2, r3
100024dc:	2301      	movs	r3, #1
100024de:	401a      	ands	r2, r3
100024e0:	683b      	ldr	r3, [r7, #0]
100024e2:	601a      	str	r2, [r3, #0]
100024e4:	e006      	b.n	100024f4 <PWMSP001_GetTimerStatus+0x54>
          SecondTimerStatus
      );
    }
    else
    {
      *TimerStatus = (uint32_t) RD_REG(HandlePtr->CC4yRegsPtr->TCST,
100024e6:	687b      	ldr	r3, [r7, #4]
100024e8:	699b      	ldr	r3, [r3, #24]
100024ea:	689a      	ldr	r2, [r3, #8]
100024ec:	2301      	movs	r3, #1
100024ee:	401a      	ands	r2, r3
100024f0:	683b      	ldr	r3, [r7, #0]
100024f2:	601a      	str	r2, [r3, #0]
          CCU4_CC4_TCST_TRB_Msk, CCU4_CC4_TCST_TRB_Pos);
    }
    Status = (uint32_t)DAVEApp_SUCCESS;
100024f4:	2300      	movs	r3, #0
100024f6:	60fb      	str	r3, [r7, #12]
  }
  return Status; 
100024f8:	68fb      	ldr	r3, [r7, #12]
}
100024fa:	1c18      	adds	r0, r3, #0
100024fc:	46bd      	mov	sp, r7
100024fe:	b004      	add	sp, #16
10002500:	bd80      	pop	{r7, pc}
10002502:	46c0      	nop			; (mov r8, r8)

10002504 <PWMSP001_GetTimerRegsVal>:
status_t PWMSP001_GetTimerRegsVal
(
    const PWMSP001_HandleType* HandlePtr,
    PWMSP001_TimerRegsType* TimerRegs
)
{
10002504:	b580      	push	{r7, lr}
10002506:	b084      	sub	sp, #16
10002508:	af00      	add	r7, sp, #0
1000250a:	6078      	str	r0, [r7, #4]
1000250c:	6039      	str	r1, [r7, #0]
  status_t Status = (uint32_t)PWMSP001_OPER_NOT_ALLOWED_ERROR;
1000250e:	2301      	movs	r3, #1
10002510:	60fb      	str	r3, [r7, #12]
  uint32_t ScndSlTMRVal = 0UL;
10002512:	2300      	movs	r3, #0
10002514:	60bb      	str	r3, [r7, #8]

  /*<<<DD_PWMSP001_API_9_1>>>*/
  if (HandlePtr->DynamicDataType->StateType == PWMSP001_UNINITIALIZED)
10002516:	687b      	ldr	r3, [r7, #4]
10002518:	6bdb      	ldr	r3, [r3, #60]	; 0x3c
1000251a:	781b      	ldrb	r3, [r3, #0]
1000251c:	2b00      	cmp	r3, #0
1000251e:	d051      	beq.n	100025c4 <PWMSP001_GetTimerRegsVal+0xc0>
	DBG002_INFO(APP_GID, DBG002_MESSAGEID_LITERAL, PWMSP001_STATUS_LEN, &Status);
  }
  /*<<<DD_PWMSP001_API_9_2>>>*/
  else
  {
    if (HandlePtr->kTimerConcatenation == (uint8_t)SET)
10002520:	687a      	ldr	r2, [r7, #4]
10002522:	2320      	movs	r3, #32
10002524:	5cd3      	ldrb	r3, [r2, r3]
10002526:	2b01      	cmp	r3, #1
10002528:	d139      	bne.n	1000259e <PWMSP001_GetTimerRegsVal+0x9a>
    {
      ScndSlTMRVal = (RD_REG(HandlePtr->CC4yRegs1Ptr->TIMER,
1000252a:	687b      	ldr	r3, [r7, #4]
1000252c:	69db      	ldr	r3, [r3, #28]
1000252e:	6f1b      	ldr	r3, [r3, #112]	; 0x70
10002530:	041b      	lsls	r3, r3, #16
10002532:	60bb      	str	r3, [r7, #8]
          CCU4_CC4_TIMER_TVAL_Msk, CCU4_CC4_TIMER_TVAL_Pos) << 16UL);

      TimerRegs->TimerReg = (uint32_t)(ScndSlTMRVal |
          (RD_REG(HandlePtr->CC4yRegsPtr->TIMER,
10002534:	687b      	ldr	r3, [r7, #4]
10002536:	699b      	ldr	r3, [r3, #24]
10002538:	6f1b      	ldr	r3, [r3, #112]	; 0x70
1000253a:	041b      	lsls	r3, r3, #16
1000253c:	0c1a      	lsrs	r2, r3, #16
    if (HandlePtr->kTimerConcatenation == (uint8_t)SET)
    {
      ScndSlTMRVal = (RD_REG(HandlePtr->CC4yRegs1Ptr->TIMER,
          CCU4_CC4_TIMER_TVAL_Msk, CCU4_CC4_TIMER_TVAL_Pos) << 16UL);

      TimerRegs->TimerReg = (uint32_t)(ScndSlTMRVal |
1000253e:	68bb      	ldr	r3, [r7, #8]
10002540:	431a      	orrs	r2, r3
10002542:	683b      	ldr	r3, [r7, #0]
10002544:	609a      	str	r2, [r3, #8]
          (RD_REG(HandlePtr->CC4yRegsPtr->TIMER,
              CCU4_CC4_TIMER_TVAL_Msk, CCU4_CC4_TIMER_TVAL_Pos)));

      TimerRegs->CompReg = HandlePtr->CC4yRegs1Ptr->CRS; 
10002546:	687b      	ldr	r3, [r7, #4]
10002548:	69db      	ldr	r3, [r3, #28]
1000254a:	6bda      	ldr	r2, [r3, #60]	; 0x3c
1000254c:	683b      	ldr	r3, [r7, #0]
1000254e:	601a      	str	r2, [r3, #0]
      TimerRegs->CompReg*= HandlePtr->CC4yRegsPtr->PRS;
10002550:	683b      	ldr	r3, [r7, #0]
10002552:	681a      	ldr	r2, [r3, #0]
10002554:	687b      	ldr	r3, [r7, #4]
10002556:	699b      	ldr	r3, [r3, #24]
10002558:	6b5b      	ldr	r3, [r3, #52]	; 0x34
1000255a:	435a      	muls	r2, r3
1000255c:	683b      	ldr	r3, [r7, #0]
1000255e:	601a      	str	r2, [r3, #0]
      TimerRegs->CompReg += HandlePtr->CC4yRegsPtr->CRS;
10002560:	683b      	ldr	r3, [r7, #0]
10002562:	681a      	ldr	r2, [r3, #0]
10002564:	687b      	ldr	r3, [r7, #4]
10002566:	699b      	ldr	r3, [r3, #24]
10002568:	6bdb      	ldr	r3, [r3, #60]	; 0x3c
1000256a:	18d2      	adds	r2, r2, r3
1000256c:	683b      	ldr	r3, [r7, #0]
1000256e:	601a      	str	r2, [r3, #0]
      TimerRegs->PeriodReg = HandlePtr->CC4yRegs1Ptr->PRS+ 1U;
10002570:	687b      	ldr	r3, [r7, #4]
10002572:	69db      	ldr	r3, [r3, #28]
10002574:	6b5b      	ldr	r3, [r3, #52]	; 0x34
10002576:	1c5a      	adds	r2, r3, #1
10002578:	683b      	ldr	r3, [r7, #0]
1000257a:	605a      	str	r2, [r3, #4]
      TimerRegs->PeriodReg *= (uint32_t)((HandlePtr->CC4yRegsPtr->PRS & 0xFFFFU) +1U);
1000257c:	683b      	ldr	r3, [r7, #0]
1000257e:	685a      	ldr	r2, [r3, #4]
10002580:	687b      	ldr	r3, [r7, #4]
10002582:	699b      	ldr	r3, [r3, #24]
10002584:	6b5b      	ldr	r3, [r3, #52]	; 0x34
10002586:	041b      	lsls	r3, r3, #16
10002588:	0c1b      	lsrs	r3, r3, #16
1000258a:	3301      	adds	r3, #1
1000258c:	435a      	muls	r2, r3
1000258e:	683b      	ldr	r3, [r7, #0]
10002590:	605a      	str	r2, [r3, #4]
      TimerRegs->PeriodReg += 1U ;
10002592:	683b      	ldr	r3, [r7, #0]
10002594:	685b      	ldr	r3, [r3, #4]
10002596:	1c5a      	adds	r2, r3, #1
10002598:	683b      	ldr	r3, [r7, #0]
1000259a:	605a      	str	r2, [r3, #4]
1000259c:	e010      	b.n	100025c0 <PWMSP001_GetTimerRegsVal+0xbc>
    }

    else
    {
      TimerRegs->TimerReg = (uint32_t)RD_REG(HandlePtr->CC4yRegsPtr->TIMER,
1000259e:	687b      	ldr	r3, [r7, #4]
100025a0:	699b      	ldr	r3, [r3, #24]
100025a2:	6f1b      	ldr	r3, [r3, #112]	; 0x70
100025a4:	041b      	lsls	r3, r3, #16
100025a6:	0c1a      	lsrs	r2, r3, #16
100025a8:	683b      	ldr	r3, [r7, #0]
100025aa:	609a      	str	r2, [r3, #8]
          CCU4_CC4_TIMER_TVAL_Msk, CCU4_CC4_TIMER_TVAL_Pos);

      TimerRegs->CompReg = HandlePtr->CC4yRegsPtr->CRS;
100025ac:	687b      	ldr	r3, [r7, #4]
100025ae:	699b      	ldr	r3, [r3, #24]
100025b0:	6bda      	ldr	r2, [r3, #60]	; 0x3c
100025b2:	683b      	ldr	r3, [r7, #0]
100025b4:	601a      	str	r2, [r3, #0]
      TimerRegs->PeriodReg = HandlePtr->CC4yRegsPtr->PRS;
100025b6:	687b      	ldr	r3, [r7, #4]
100025b8:	699b      	ldr	r3, [r3, #24]
100025ba:	6b5a      	ldr	r2, [r3, #52]	; 0x34
100025bc:	683b      	ldr	r3, [r7, #0]
100025be:	605a      	str	r2, [r3, #4]

    }
    Status = (uint32_t)DAVEApp_SUCCESS;
100025c0:	2300      	movs	r3, #0
100025c2:	60fb      	str	r3, [r7, #12]
  }
  return Status;
100025c4:	68fb      	ldr	r3, [r7, #12]
}
100025c6:	1c18      	adds	r0, r3, #0
100025c8:	46bd      	mov	sp, r7
100025ca:	b004      	add	sp, #16
100025cc:	bd80      	pop	{r7, pc}
100025ce:	46c0      	nop			; (mov r8, r8)

100025d0 <PWMSP001_GetPeriodReg>:
status_t PWMSP001_GetPeriodReg
(
    const PWMSP001_HandleType* HandlePtr,
    uint32_t* PeriodReg
)
{
100025d0:	b580      	push	{r7, lr}
100025d2:	b084      	sub	sp, #16
100025d4:	af00      	add	r7, sp, #0
100025d6:	6078      	str	r0, [r7, #4]
100025d8:	6039      	str	r1, [r7, #0]
  status_t Status = (uint32_t)PWMSP001_OPER_NOT_ALLOWED_ERROR;
100025da:	2301      	movs	r3, #1
100025dc:	60fb      	str	r3, [r7, #12]

  /*<<<DD_PWMSP001_API_15_1>>>*/
  if (HandlePtr->DynamicDataType->StateType == PWMSP001_UNINITIALIZED)
100025de:	687b      	ldr	r3, [r7, #4]
100025e0:	6bdb      	ldr	r3, [r3, #60]	; 0x3c
100025e2:	781b      	ldrb	r3, [r3, #0]
100025e4:	2b00      	cmp	r3, #0
100025e6:	d022      	beq.n	1000262e <PWMSP001_GetPeriodReg+0x5e>
  {
	DBG002_INFO(APP_GID, DBG002_MESSAGEID_LITERAL, PWMSP001_STATUS_LEN, &Status);
  }
  else
  {
    if (HandlePtr->kTimerConcatenation == (uint8_t)SET)
100025e8:	687a      	ldr	r2, [r7, #4]
100025ea:	2320      	movs	r3, #32
100025ec:	5cd3      	ldrb	r3, [r2, r3]
100025ee:	2b01      	cmp	r3, #1
100025f0:	d116      	bne.n	10002620 <PWMSP001_GetPeriodReg+0x50>
    {
      *PeriodReg = (HandlePtr->CC4yRegs1Ptr->PRS + 1U);
100025f2:	687b      	ldr	r3, [r7, #4]
100025f4:	69db      	ldr	r3, [r3, #28]
100025f6:	6b5b      	ldr	r3, [r3, #52]	; 0x34
100025f8:	1c5a      	adds	r2, r3, #1
100025fa:	683b      	ldr	r3, [r7, #0]
100025fc:	601a      	str	r2, [r3, #0]
      *PeriodReg  *=(uint32_t)((HandlePtr->CC4yRegsPtr->PRS & 0xFFFFU) +1U);
100025fe:	683b      	ldr	r3, [r7, #0]
10002600:	681a      	ldr	r2, [r3, #0]
10002602:	687b      	ldr	r3, [r7, #4]
10002604:	699b      	ldr	r3, [r3, #24]
10002606:	6b5b      	ldr	r3, [r3, #52]	; 0x34
10002608:	041b      	lsls	r3, r3, #16
1000260a:	0c1b      	lsrs	r3, r3, #16
1000260c:	3301      	adds	r3, #1
1000260e:	435a      	muls	r2, r3
10002610:	683b      	ldr	r3, [r7, #0]
10002612:	601a      	str	r2, [r3, #0]
      *PeriodReg  += 1U;
10002614:	683b      	ldr	r3, [r7, #0]
10002616:	681b      	ldr	r3, [r3, #0]
10002618:	1c5a      	adds	r2, r3, #1
1000261a:	683b      	ldr	r3, [r7, #0]
1000261c:	601a      	str	r2, [r3, #0]
1000261e:	e004      	b.n	1000262a <PWMSP001_GetPeriodReg+0x5a>
    }
    else
    {
      *PeriodReg = HandlePtr->CC4yRegsPtr->PRS;
10002620:	687b      	ldr	r3, [r7, #4]
10002622:	699b      	ldr	r3, [r3, #24]
10002624:	6b5a      	ldr	r2, [r3, #52]	; 0x34
10002626:	683b      	ldr	r3, [r7, #0]
10002628:	601a      	str	r2, [r3, #0]
    }
    Status = (uint32_t)DAVEApp_SUCCESS;
1000262a:	2300      	movs	r3, #0
1000262c:	60fb      	str	r3, [r7, #12]
  }
  return Status;
1000262e:	68fb      	ldr	r3, [r7, #12]
}
10002630:	1c18      	adds	r0, r3, #0
10002632:	46bd      	mov	sp, r7
10002634:	b004      	add	sp, #16
10002636:	bd80      	pop	{r7, pc}

10002638 <PWMSP001_SWRequestShadowTransfer>:
 */
status_t PWMSP001_SWRequestShadowTransfer
(
    const PWMSP001_HandleType* HandlePtr
)
{
10002638:	b5b0      	push	{r4, r5, r7, lr}
1000263a:	b086      	sub	sp, #24
1000263c:	af00      	add	r7, sp, #0
1000263e:	6078      	str	r0, [r7, #4]
  status_t Status = (uint32_t)PWMSP001_OPER_NOT_ALLOWED_ERROR;
10002640:	2301      	movs	r3, #1
10002642:	617b      	str	r3, [r7, #20]
  uint32_t Temp1;
  uint32_t Temp2;
  uint32_t Temp3;

  /*<<<DD_PWMSP001_API_10_1>>>*/
  if (HandlePtr->DynamicDataType->StateType == PWMSP001_UNINITIALIZED)
10002644:	687b      	ldr	r3, [r7, #4]
10002646:	6bdb      	ldr	r3, [r3, #60]	; 0x3c
10002648:	781b      	ldrb	r3, [r3, #0]
1000264a:	2b00      	cmp	r3, #0
1000264c:	d032      	beq.n	100026b4 <PWMSP001_SWRequestShadowTransfer+0x7c>
  }
  /*<<<DD_PWMSP001_API_10_2>>>*/
  else
  {
    /*Request shadow transfer for the First Slice*/
    if (HandlePtr->kTimerConcatenation == (uint8_t)SET)
1000264e:	687a      	ldr	r2, [r7, #4]
10002650:	2320      	movs	r3, #32
10002652:	5cd3      	ldrb	r3, [r2, r3]
10002654:	2b01      	cmp	r3, #1
10002656:	d11a      	bne.n	1000268e <PWMSP001_SWRequestShadowTransfer+0x56>
    {
      /*Request shadow transfer for the Second Slice*/
      Temp1 = (uint32_t)CCU4_GCSS_S0SE_Pos + ((uint32_t)4 * (uint32_t)HandlePtr->FirstSlice);
10002658:	687a      	ldr	r2, [r7, #4]
1000265a:	2337      	movs	r3, #55	; 0x37
1000265c:	5cd3      	ldrb	r3, [r2, r3]
1000265e:	009b      	lsls	r3, r3, #2
10002660:	613b      	str	r3, [r7, #16]
      Temp2 = (uint32_t)CCU4_GCSS_S0SE_Pos + ((uint32_t)4*(uint32_t)HandlePtr->SecondSlice);
10002662:	687a      	ldr	r2, [r7, #4]
10002664:	2338      	movs	r3, #56	; 0x38
10002666:	5cd3      	ldrb	r3, [r2, r3]
10002668:	009b      	lsls	r3, r3, #2
1000266a:	60fb      	str	r3, [r7, #12]
      HandlePtr->CC4yKernRegsPtr->GCSS |=  ((uint32_t)0x01 << Temp1) | ((uint32_t)0x01 << Temp2);
1000266c:	687b      	ldr	r3, [r7, #4]
1000266e:	695b      	ldr	r3, [r3, #20]
10002670:	687a      	ldr	r2, [r7, #4]
10002672:	6952      	ldr	r2, [r2, #20]
10002674:	6911      	ldr	r1, [r2, #16]
10002676:	693a      	ldr	r2, [r7, #16]
10002678:	2001      	movs	r0, #1
1000267a:	4090      	lsls	r0, r2
1000267c:	68fa      	ldr	r2, [r7, #12]
1000267e:	2401      	movs	r4, #1
10002680:	1c25      	adds	r5, r4, #0
10002682:	4095      	lsls	r5, r2
10002684:	1c2a      	adds	r2, r5, #0
10002686:	4302      	orrs	r2, r0
10002688:	430a      	orrs	r2, r1
1000268a:	611a      	str	r2, [r3, #16]
1000268c:	e010      	b.n	100026b0 <PWMSP001_SWRequestShadowTransfer+0x78>
    }
    else
    {
      Temp3 =  (uint32_t)CCU4_GCSS_S0SE_Pos + (4U * (uint32_t)HandlePtr->FirstSlice);
1000268e:	687a      	ldr	r2, [r7, #4]
10002690:	2337      	movs	r3, #55	; 0x37
10002692:	5cd3      	ldrb	r3, [r2, r3]
10002694:	009b      	lsls	r3, r3, #2
10002696:	60bb      	str	r3, [r7, #8]
      HandlePtr->CC4yKernRegsPtr->GCSS |= ((uint32_t)0x01 << Temp3);
10002698:	687b      	ldr	r3, [r7, #4]
1000269a:	695b      	ldr	r3, [r3, #20]
1000269c:	687a      	ldr	r2, [r7, #4]
1000269e:	6952      	ldr	r2, [r2, #20]
100026a0:	6911      	ldr	r1, [r2, #16]
100026a2:	68ba      	ldr	r2, [r7, #8]
100026a4:	2001      	movs	r0, #1
100026a6:	1c04      	adds	r4, r0, #0
100026a8:	4094      	lsls	r4, r2
100026aa:	1c22      	adds	r2, r4, #0
100026ac:	430a      	orrs	r2, r1
100026ae:	611a      	str	r2, [r3, #16]
    }
    Status = (uint32_t)DAVEApp_SUCCESS;
100026b0:	2300      	movs	r3, #0
100026b2:	617b      	str	r3, [r7, #20]
  }
  return Status;
100026b4:	697b      	ldr	r3, [r7, #20]
}
100026b6:	1c18      	adds	r0, r3, #0
100026b8:	46bd      	mov	sp, r7
100026ba:	b006      	add	sp, #24
100026bc:	bdb0      	pop	{r4, r5, r7, pc}
100026be:	46c0      	nop			; (mov r8, r8)

100026c0 <PWMSP001_ResetTrapFlag>:
/*<<<DD_PWMSP001_API_13>>>*/
/*
 * This function resets the trap flag if trap condition is inactive
 */
void PWMSP001_ResetTrapFlag(const PWMSP001_HandleType* HandlePtr)
{
100026c0:	b580      	push	{r7, lr}
100026c2:	b082      	sub	sp, #8
100026c4:	af00      	add	r7, sp, #0
100026c6:	6078      	str	r0, [r7, #4]
   if (HandlePtr->kTrapExitControl == (uint8_t)SET)
100026c8:	687b      	ldr	r3, [r7, #4]
100026ca:	7cdb      	ldrb	r3, [r3, #19]
100026cc:	2b01      	cmp	r3, #1
100026ce:	d11a      	bne.n	10002706 <PWMSP001_ResetTrapFlag+0x46>
    {
      SET_BIT(HandlePtr->CC4yRegsPtr->SWR, PWMSP001_EVENT2_INTERRUPT);
100026d0:	687b      	ldr	r3, [r7, #4]
100026d2:	699a      	ldr	r2, [r3, #24]
100026d4:	687b      	ldr	r3, [r7, #4]
100026d6:	6999      	ldr	r1, [r3, #24]
100026d8:	23b0      	movs	r3, #176	; 0xb0
100026da:	58cb      	ldr	r3, [r1, r3]
100026dc:	2180      	movs	r1, #128	; 0x80
100026de:	00c9      	lsls	r1, r1, #3
100026e0:	4319      	orrs	r1, r3
100026e2:	23b0      	movs	r3, #176	; 0xb0
100026e4:	50d1      	str	r1, [r2, r3]
      if (HandlePtr->kTimerConcatenation == (uint8_t)SET)
100026e6:	687a      	ldr	r2, [r7, #4]
100026e8:	2320      	movs	r3, #32
100026ea:	5cd3      	ldrb	r3, [r2, r3]
100026ec:	2b01      	cmp	r3, #1
100026ee:	d10a      	bne.n	10002706 <PWMSP001_ResetTrapFlag+0x46>
      {
        SET_BIT(HandlePtr->CC4yRegs1Ptr->SWR, PWMSP001_EVENT2_INTERRUPT);
100026f0:	687b      	ldr	r3, [r7, #4]
100026f2:	69da      	ldr	r2, [r3, #28]
100026f4:	687b      	ldr	r3, [r7, #4]
100026f6:	69d9      	ldr	r1, [r3, #28]
100026f8:	23b0      	movs	r3, #176	; 0xb0
100026fa:	58cb      	ldr	r3, [r1, r3]
100026fc:	2180      	movs	r1, #128	; 0x80
100026fe:	00c9      	lsls	r1, r1, #3
10002700:	4319      	orrs	r1, r3
10002702:	23b0      	movs	r3, #176	; 0xb0
10002704:	50d1      	str	r1, [r2, r3]
      }
    }
    SET_BIT(HandlePtr->CC4yRegsPtr->SWR, PWMSP001_TRAP_FLAG_CLEAR);
10002706:	687b      	ldr	r3, [r7, #4]
10002708:	699a      	ldr	r2, [r3, #24]
1000270a:	687b      	ldr	r3, [r7, #4]
1000270c:	6999      	ldr	r1, [r3, #24]
1000270e:	23b0      	movs	r3, #176	; 0xb0
10002710:	58cb      	ldr	r3, [r1, r3]
10002712:	2180      	movs	r1, #128	; 0x80
10002714:	0109      	lsls	r1, r1, #4
10002716:	4319      	orrs	r1, r3
10002718:	23b0      	movs	r3, #176	; 0xb0
1000271a:	50d1      	str	r1, [r2, r3]
    if (HandlePtr->kTimerConcatenation == (uint8_t)SET)
1000271c:	687a      	ldr	r2, [r7, #4]
1000271e:	2320      	movs	r3, #32
10002720:	5cd3      	ldrb	r3, [r2, r3]
10002722:	2b01      	cmp	r3, #1
10002724:	d10a      	bne.n	1000273c <PWMSP001_ResetTrapFlag+0x7c>
    {
      SET_BIT(HandlePtr->CC4yRegs1Ptr->SWR, PWMSP001_TRAP_FLAG_CLEAR);
10002726:	687b      	ldr	r3, [r7, #4]
10002728:	69da      	ldr	r2, [r3, #28]
1000272a:	687b      	ldr	r3, [r7, #4]
1000272c:	69d9      	ldr	r1, [r3, #28]
1000272e:	23b0      	movs	r3, #176	; 0xb0
10002730:	58cb      	ldr	r3, [r1, r3]
10002732:	2180      	movs	r1, #128	; 0x80
10002734:	0109      	lsls	r1, r1, #4
10002736:	4319      	orrs	r1, r3
10002738:	23b0      	movs	r3, #176	; 0xb0
1000273a:	50d1      	str	r1, [r2, r3]
    }
}
1000273c:	46bd      	mov	sp, r7
1000273e:	b002      	add	sp, #8
10002740:	bd80      	pop	{r7, pc}
10002742:	46c0      	nop			; (mov r8, r8)

10002744 <PWMSP001_lConfigureSecondSlice>:
/*
 * This function configures second slice.
 */

void PWMSP001_lConfigureSecondSlice(const PWMSP001_HandleType* HandlePtr)
{
10002744:	b5b0      	push	{r4, r5, r7, lr}
10002746:	b082      	sub	sp, #8
10002748:	af00      	add	r7, sp, #0
1000274a:	6078      	str	r0, [r7, #4]
  HandlePtr->CC4yRegs1Ptr->TCCLR = PWMSP001_SLICE_CLEAR;
1000274c:	687b      	ldr	r3, [r7, #4]
1000274e:	69db      	ldr	r3, [r3, #28]
10002750:	2207      	movs	r2, #7
10002752:	611a      	str	r2, [r3, #16]

  /*Set period and compare values for second slice*/
  HandlePtr->CC4yRegs1Ptr->PRS = (uint32_t)((HandlePtr->kPeriodVal & 0xFFFF0000U)
10002754:	687b      	ldr	r3, [r7, #4]
10002756:	69db      	ldr	r3, [r3, #28]
10002758:	687a      	ldr	r2, [r7, #4]
1000275a:	6a92      	ldr	r2, [r2, #40]	; 0x28
1000275c:	0c12      	lsrs	r2, r2, #16
1000275e:	635a      	str	r2, [r3, #52]	; 0x34
      >> 16U);
  HandlePtr->CC4yRegs1Ptr->CRS =(uint32_t)((HandlePtr->kCompareValue & 0xFFFF0000U)
10002760:	687b      	ldr	r3, [r7, #4]
10002762:	69db      	ldr	r3, [r3, #28]
10002764:	687a      	ldr	r2, [r7, #4]
10002766:	6892      	ldr	r2, [r2, #8]
10002768:	0c12      	lsrs	r2, r2, #16
1000276a:	63da      	str	r2, [r3, #60]	; 0x3c
      >> 16U);

  HandlePtr->CC4yRegs1Ptr->CMC |= ((uint32_t)0x01 << (uint32_t)CCU4_CC4_CMC_TCE_Pos);
1000276c:	687b      	ldr	r3, [r7, #4]
1000276e:	69db      	ldr	r3, [r3, #28]
10002770:	687a      	ldr	r2, [r7, #4]
10002772:	69d2      	ldr	r2, [r2, #28]
10002774:	6852      	ldr	r2, [r2, #4]
10002776:	2180      	movs	r1, #128	; 0x80
10002778:	0349      	lsls	r1, r1, #13
1000277a:	430a      	orrs	r2, r1
1000277c:	605a      	str	r2, [r3, #4]

  /*<<<DD_PWMSP001_nonAPI_1_3>>>*/
  if (HandlePtr->kExtStopTrig == (uint8_t)SET)
1000277e:	687b      	ldr	r3, [r7, #4]
10002780:	7bdb      	ldrb	r3, [r3, #15]
10002782:	2b01      	cmp	r3, #1
10002784:	d125      	bne.n	100027d2 <PWMSP001_lConfigureSecondSlice+0x8e>
  {
    HandlePtr->CC4yRegs1Ptr->INS &=(uint32_t) ~(CCU4_CC4_INS_EV1EM_Msk | (uint32_t)CCU4_CC4_INS_LPF1M_Msk);
10002786:	687b      	ldr	r3, [r7, #4]
10002788:	69db      	ldr	r3, [r3, #28]
1000278a:	687a      	ldr	r2, [r7, #4]
1000278c:	69d2      	ldr	r2, [r2, #28]
1000278e:	6811      	ldr	r1, [r2, #0]
10002790:	4a79      	ldr	r2, [pc, #484]	; (10002978 <PWMSP001_lConfigureSecondSlice+0x234>)
10002792:	400a      	ands	r2, r1
10002794:	601a      	str	r2, [r3, #0]
    HandlePtr->CC4yRegs1Ptr->CMC &=(uint32_t) ~(CCU4_CC4_CMC_ENDS_Msk);
10002796:	687b      	ldr	r3, [r7, #4]
10002798:	69db      	ldr	r3, [r3, #28]
1000279a:	687a      	ldr	r2, [r7, #4]
1000279c:	69d2      	ldr	r2, [r2, #28]
1000279e:	6852      	ldr	r2, [r2, #4]
100027a0:	210c      	movs	r1, #12
100027a2:	438a      	bics	r2, r1
100027a4:	605a      	str	r2, [r3, #4]
    HandlePtr->CC4yRegs1Ptr->INS |=(uint32_t)((((uint32_t)HandlePtr->kStopEdge  <<   \
100027a6:	687b      	ldr	r3, [r7, #4]
100027a8:	69db      	ldr	r3, [r3, #28]
100027aa:	687a      	ldr	r2, [r7, #4]
100027ac:	69d2      	ldr	r2, [r2, #28]
100027ae:	6811      	ldr	r1, [r2, #0]
100027b0:	6878      	ldr	r0, [r7, #4]
100027b2:	2224      	movs	r2, #36	; 0x24
100027b4:	5c82      	ldrb	r2, [r0, r2]
100027b6:	0490      	lsls	r0, r2, #18
100027b8:	22c0      	movs	r2, #192	; 0xc0
100027ba:	0312      	lsls	r2, r2, #12
100027bc:	4002      	ands	r2, r0
100027be:	430a      	orrs	r2, r1
100027c0:	601a      	str	r2, [r3, #0]
      (uint32_t)CCU4_CC4_INS_EV1EM_Pos)& (uint32_t)CCU4_CC4_INS_EV1EM_Msk) | \
	    (((uint32_t)PWMSP001_LPF << (uint32_t)CCU4_CC4_INS_LPF1M_Pos)& \
		  (uint32_t)CCU4_CC4_INS_LPF1M_Msk));
    HandlePtr->CC4yRegs1Ptr->CMC |= (((uint32_t)PWMSP001_EVENT_1  <<  \
100027c2:	687b      	ldr	r3, [r7, #4]
100027c4:	69db      	ldr	r3, [r3, #28]
100027c6:	687a      	ldr	r2, [r7, #4]
100027c8:	69d2      	ldr	r2, [r2, #28]
100027ca:	6852      	ldr	r2, [r2, #4]
100027cc:	2108      	movs	r1, #8
100027ce:	430a      	orrs	r2, r1
100027d0:	605a      	str	r2, [r3, #4]
      (uint32_t)CCU4_CC4_CMC_ENDS_Pos)& (uint32_t)CCU4_CC4_CMC_ENDS_Msk);
  }/*End of if (HandlePtr->kExtStopTrig == SET)*/

  /*<<<DD_PWMSP001_nonAPI_1_4>>>*/
  if (HandlePtr->kTrapEnable == (uint8_t)SET)
100027d2:	687b      	ldr	r3, [r7, #4]
100027d4:	7c5b      	ldrb	r3, [r3, #17]
100027d6:	2b01      	cmp	r3, #1
100027d8:	d125      	bne.n	10002826 <PWMSP001_lConfigureSecondSlice+0xe2>
  {
    HandlePtr->CC4yRegs1Ptr -> INS &=(uint32_t) ~(CCU4_CC4_INS_EV2EM_Msk | CCU4_CC4_INS_EV2LM_Msk 
100027da:	687b      	ldr	r3, [r7, #4]
100027dc:	69db      	ldr	r3, [r3, #28]
100027de:	687a      	ldr	r2, [r7, #4]
100027e0:	69d2      	ldr	r2, [r2, #28]
100027e2:	6811      	ldr	r1, [r2, #0]
100027e4:	4a65      	ldr	r2, [pc, #404]	; (1000297c <PWMSP001_lConfigureSecondSlice+0x238>)
100027e6:	400a      	ands	r2, r1
100027e8:	601a      	str	r2, [r3, #0]
        | CCU4_CC4_INS_LPF2M_Msk);
    HandlePtr->CC4yRegs1Ptr->CMC &= (uint32_t)~(CCU4_CC4_CMC_TS_Msk);
100027ea:	687b      	ldr	r3, [r7, #4]
100027ec:	69db      	ldr	r3, [r3, #28]
100027ee:	687a      	ldr	r2, [r7, #4]
100027f0:	69d2      	ldr	r2, [r2, #28]
100027f2:	6851      	ldr	r1, [r2, #4]
100027f4:	4a62      	ldr	r2, [pc, #392]	; (10002980 <PWMSP001_lConfigureSecondSlice+0x23c>)
100027f6:	400a      	ands	r2, r1
100027f8:	605a      	str	r2, [r3, #4]
    HandlePtr->CC4yRegs1Ptr -> INS |= (uint32_t) \
100027fa:	687b      	ldr	r3, [r7, #4]
100027fc:	69db      	ldr	r3, [r3, #28]
100027fe:	687a      	ldr	r2, [r7, #4]
10002800:	69d2      	ldr	r2, [r2, #28]
10002802:	6811      	ldr	r1, [r2, #0]
        ((((uint32_t)0x00 << CCU4_CC4_INS_EV2EM_Pos)& (uint32_t)CCU4_CC4_INS_EV2EM_Msk) | \
            ((((uint32_t)HandlePtr->kTrapLevel  <<	\
10002804:	687a      	ldr	r2, [r7, #4]
10002806:	7812      	ldrb	r2, [r2, #0]
10002808:	0610      	lsls	r0, r2, #24
  if (HandlePtr->kTrapEnable == (uint8_t)SET)
  {
    HandlePtr->CC4yRegs1Ptr -> INS &=(uint32_t) ~(CCU4_CC4_INS_EV2EM_Msk | CCU4_CC4_INS_EV2LM_Msk 
        | CCU4_CC4_INS_LPF2M_Msk);
    HandlePtr->CC4yRegs1Ptr->CMC &= (uint32_t)~(CCU4_CC4_CMC_TS_Msk);
    HandlePtr->CC4yRegs1Ptr -> INS |= (uint32_t) \
1000280a:	2280      	movs	r2, #128	; 0x80
1000280c:	0452      	lsls	r2, r2, #17
1000280e:	4002      	ands	r2, r0
10002810:	430a      	orrs	r2, r1
10002812:	601a      	str	r2, [r3, #0]
        ((((uint32_t)0x00 << CCU4_CC4_INS_EV2EM_Pos)& (uint32_t)CCU4_CC4_INS_EV2EM_Msk) | \
            ((((uint32_t)HandlePtr->kTrapLevel  <<	\
                CCU4_CC4_INS_EV2LM_Pos)& (uint32_t)CCU4_CC4_INS_EV2LM_Msk) | (((uint32_t)0x00  << \
                    CCU4_CC4_INS_LPF2M_Pos)& (uint32_t)CCU4_CC4_INS_LPF2M_Msk)));
    HandlePtr->CC4yRegs1Ptr->CMC |= ((uint32_t)0x01 << (uint32_t)CCU4_CC4_CMC_TS_Pos);
10002814:	687b      	ldr	r3, [r7, #4]
10002816:	69db      	ldr	r3, [r3, #28]
10002818:	687a      	ldr	r2, [r7, #4]
1000281a:	69d2      	ldr	r2, [r2, #28]
1000281c:	6852      	ldr	r2, [r2, #4]
1000281e:	2180      	movs	r1, #128	; 0x80
10002820:	0289      	lsls	r1, r1, #10
10002822:	430a      	orrs	r2, r1
10002824:	605a      	str	r2, [r3, #4]
  }/*End of if (HandlePtr->kTrapEnable == SET)*/

  HandlePtr->CC4yRegs1Ptr->TC &=(uint32_t) ~(CCU4_CC4_TC_TCM_Msk | CCU4_CC4_TC_TSSM_Msk
10002826:	687b      	ldr	r3, [r7, #4]
10002828:	69db      	ldr	r3, [r3, #28]
1000282a:	687a      	ldr	r2, [r7, #4]
1000282c:	69d2      	ldr	r2, [r2, #28]
1000282e:	6951      	ldr	r1, [r2, #20]
10002830:	4a54      	ldr	r2, [pc, #336]	; (10002984 <PWMSP001_lConfigureSecondSlice+0x240>)
10002832:	400a      	ands	r2, r1
10002834:	615a      	str	r2, [r3, #20]
      | CCU4_CC4_TC_CMOD_Msk | CCU4_CC4_TC_STRM_Msk | CCU4_CC4_TC_ENDM_Msk
      | CCU4_CC4_TC_DITHE_Msk);
  HandlePtr->CC4yRegs1Ptr->TC =	(((uint32_t)HandlePtr->CountingModeType  << \
10002836:	687b      	ldr	r3, [r7, #4]
10002838:	69db      	ldr	r3, [r3, #28]
1000283a:	6879      	ldr	r1, [r7, #4]
1000283c:	2236      	movs	r2, #54	; 0x36
1000283e:	5c8a      	ldrb	r2, [r1, r2]
10002840:	1c11      	adds	r1, r2, #0
    (uint32_t)CCU4_CC4_TC_TCM_Pos)& (uint32_t)CCU4_CC4_TC_TCM_Msk)|	\
10002842:	2201      	movs	r2, #1
10002844:	4011      	ands	r1, r2
      (((uint32_t)HandlePtr->kTimerMode  << (uint32_t)CCU4_CC4_TC_TSSM_Pos)& \
10002846:	687a      	ldr	r2, [r7, #4]
10002848:	7b12      	ldrb	r2, [r2, #12]
1000284a:	0050      	lsls	r0, r2, #1
1000284c:	2202      	movs	r2, #2
1000284e:	4002      	ands	r2, r0
	    (uint32_t)CCU4_CC4_TC_TSSM_Msk)|(((uint32_t)PWMSP001_COMPARE_MODE  << \
10002850:	4311      	orrs	r1, r2
		  (uint32_t)CCU4_CC4_TC_CMOD_Pos)& (uint32_t)CCU4_CC4_TC_CMOD_Msk)| \
            (((uint32_t)HandlePtr->ExtStartConfigType << (uint32_t)CCU4_CC4_TC_STRM_Pos)\
10002852:	6878      	ldr	r0, [r7, #4]
10002854:	2234      	movs	r2, #52	; 0x34
10002856:	5c82      	ldrb	r2, [r0, r2]
10002858:	0290      	lsls	r0, r2, #10
			  &(uint32_t)CCU4_CC4_TC_STRM_Msk)| (((uint32_t)HandlePtr->ExtStopConfigType <<	\
1000285a:	2280      	movs	r2, #128	; 0x80
1000285c:	00d2      	lsls	r2, r2, #3
1000285e:	4002      	ands	r2, r0
      | CCU4_CC4_TC_DITHE_Msk);
  HandlePtr->CC4yRegs1Ptr->TC =	(((uint32_t)HandlePtr->CountingModeType  << \
    (uint32_t)CCU4_CC4_TC_TCM_Pos)& (uint32_t)CCU4_CC4_TC_TCM_Msk)|	\
      (((uint32_t)HandlePtr->kTimerMode  << (uint32_t)CCU4_CC4_TC_TSSM_Pos)& \
	    (uint32_t)CCU4_CC4_TC_TSSM_Msk)|(((uint32_t)PWMSP001_COMPARE_MODE  << \
		  (uint32_t)CCU4_CC4_TC_CMOD_Pos)& (uint32_t)CCU4_CC4_TC_CMOD_Msk)| \
10002860:	4311      	orrs	r1, r2
            (((uint32_t)HandlePtr->ExtStartConfigType << (uint32_t)CCU4_CC4_TC_STRM_Pos)\
			  &(uint32_t)CCU4_CC4_TC_STRM_Msk)| (((uint32_t)HandlePtr->ExtStopConfigType <<	\
10002862:	6878      	ldr	r0, [r7, #4]
10002864:	2235      	movs	r2, #53	; 0x35
10002866:	5c82      	ldrb	r2, [r0, r2]
10002868:	0210      	lsls	r0, r2, #8
                (uint32_t)CCU4_CC4_TC_ENDM_Pos)& (uint32_t)CCU4_CC4_TC_ENDM_Msk);
1000286a:	22c0      	movs	r2, #192	; 0xc0
1000286c:	0092      	lsls	r2, r2, #2
1000286e:	4002      	ands	r2, r0
    (uint32_t)CCU4_CC4_TC_TCM_Pos)& (uint32_t)CCU4_CC4_TC_TCM_Msk)|	\
      (((uint32_t)HandlePtr->kTimerMode  << (uint32_t)CCU4_CC4_TC_TSSM_Pos)& \
	    (uint32_t)CCU4_CC4_TC_TSSM_Msk)|(((uint32_t)PWMSP001_COMPARE_MODE  << \
		  (uint32_t)CCU4_CC4_TC_CMOD_Pos)& (uint32_t)CCU4_CC4_TC_CMOD_Msk)| \
            (((uint32_t)HandlePtr->ExtStartConfigType << (uint32_t)CCU4_CC4_TC_STRM_Pos)\
			  &(uint32_t)CCU4_CC4_TC_STRM_Msk)| (((uint32_t)HandlePtr->ExtStopConfigType <<	\
10002870:	430a      	orrs	r2, r1
  }/*End of if (HandlePtr->kTrapEnable == SET)*/

  HandlePtr->CC4yRegs1Ptr->TC &=(uint32_t) ~(CCU4_CC4_TC_TCM_Msk | CCU4_CC4_TC_TSSM_Msk
      | CCU4_CC4_TC_CMOD_Msk | CCU4_CC4_TC_STRM_Msk | CCU4_CC4_TC_ENDM_Msk
      | CCU4_CC4_TC_DITHE_Msk);
  HandlePtr->CC4yRegs1Ptr->TC =	(((uint32_t)HandlePtr->CountingModeType  << \
10002872:	615a      	str	r2, [r3, #20]
            (((uint32_t)HandlePtr->ExtStartConfigType << (uint32_t)CCU4_CC4_TC_STRM_Pos)\
			  &(uint32_t)CCU4_CC4_TC_STRM_Msk)| (((uint32_t)HandlePtr->ExtStopConfigType <<	\
                (uint32_t)CCU4_CC4_TC_ENDM_Pos)& (uint32_t)CCU4_CC4_TC_ENDM_Msk);

  /*<<<DD_PWMSP001_API_non1_5>>>*/
  HandlePtr->CC4yRegs1Ptr->TC |= ((uint32_t)HandlePtr->kDitherSetting << (uint32_t)CCU4_CC4_TC_DITHE_Pos)\
10002874:	687b      	ldr	r3, [r7, #4]
10002876:	69db      	ldr	r3, [r3, #28]
10002878:	687a      	ldr	r2, [r7, #4]
1000287a:	69d2      	ldr	r2, [r2, #28]
1000287c:	6951      	ldr	r1, [r2, #20]
1000287e:	6878      	ldr	r0, [r7, #4]
10002880:	2221      	movs	r2, #33	; 0x21
10002882:	5c82      	ldrb	r2, [r0, r2]
10002884:	0350      	lsls	r0, r2, #13
    &(uint32_t)CCU4_CC4_TC_DITHE_Msk;
10002886:	22c0      	movs	r2, #192	; 0xc0
10002888:	01d2      	lsls	r2, r2, #7
1000288a:	4002      	ands	r2, r0
            (((uint32_t)HandlePtr->ExtStartConfigType << (uint32_t)CCU4_CC4_TC_STRM_Pos)\
			  &(uint32_t)CCU4_CC4_TC_STRM_Msk)| (((uint32_t)HandlePtr->ExtStopConfigType <<	\
                (uint32_t)CCU4_CC4_TC_ENDM_Pos)& (uint32_t)CCU4_CC4_TC_ENDM_Msk);

  /*<<<DD_PWMSP001_API_non1_5>>>*/
  HandlePtr->CC4yRegs1Ptr->TC |= ((uint32_t)HandlePtr->kDitherSetting << (uint32_t)CCU4_CC4_TC_DITHE_Pos)\
1000288c:	430a      	orrs	r2, r1
1000288e:	615a      	str	r2, [r3, #20]
    &(uint32_t)CCU4_CC4_TC_DITHE_Msk;
  WR_REG(HandlePtr->CC4yRegs1Ptr->DITS, (uint32_t)CCU4_CC4_DITS_DCVS_Msk, \
10002890:	687b      	ldr	r3, [r7, #4]
10002892:	69db      	ldr	r3, [r3, #28]
10002894:	687a      	ldr	r2, [r7, #4]
10002896:	7b52      	ldrb	r2, [r2, #13]
10002898:	1c11      	adds	r1, r2, #0
1000289a:	220f      	movs	r2, #15
1000289c:	4011      	ands	r1, r2
1000289e:	687a      	ldr	r2, [r7, #4]
100028a0:	69d2      	ldr	r2, [r2, #28]
100028a2:	6a12      	ldr	r2, [r2, #32]
100028a4:	200f      	movs	r0, #15
100028a6:	4382      	bics	r2, r0
100028a8:	430a      	orrs	r2, r1
100028aa:	621a      	str	r2, [r3, #32]
    (uint32_t)CCU4_CC4_DITS_DCVS_Pos, HandlePtr->kDitherCompare);

  /*<<<DD_PWMSP001_API_non1_6>>>*/
  WR_REG(HandlePtr->CC4yRegs1Ptr->TC, (uint32_t)CCU4_CC4_TC_TRPSE_Msk,
100028ac:	687b      	ldr	r3, [r7, #4]
100028ae:	69db      	ldr	r3, [r3, #28]
100028b0:	687a      	ldr	r2, [r7, #4]
100028b2:	7c92      	ldrb	r2, [r2, #18]
100028b4:	0551      	lsls	r1, r2, #21
100028b6:	2280      	movs	r2, #128	; 0x80
100028b8:	0392      	lsls	r2, r2, #14
100028ba:	4011      	ands	r1, r2
100028bc:	687a      	ldr	r2, [r7, #4]
100028be:	69d2      	ldr	r2, [r2, #28]
100028c0:	6950      	ldr	r0, [r2, #20]
100028c2:	4a31      	ldr	r2, [pc, #196]	; (10002988 <PWMSP001_lConfigureSecondSlice+0x244>)
100028c4:	4002      	ands	r2, r0
100028c6:	430a      	orrs	r2, r1
100028c8:	615a      	str	r2, [r3, #20]
      (uint32_t)CCU4_CC4_TC_TRPSE_Pos, HandlePtr->kTrapSync);

  WR_REG(HandlePtr->CC4yRegs1Ptr->TC, (uint32_t)CCU4_CC4_TC_TRPSW_Msk,
100028ca:	687b      	ldr	r3, [r7, #4]
100028cc:	69db      	ldr	r3, [r3, #28]
100028ce:	687a      	ldr	r2, [r7, #4]
100028d0:	7cd2      	ldrb	r2, [r2, #19]
100028d2:	0591      	lsls	r1, r2, #22
100028d4:	2280      	movs	r2, #128	; 0x80
100028d6:	03d2      	lsls	r2, r2, #15
100028d8:	4011      	ands	r1, r2
100028da:	687a      	ldr	r2, [r7, #4]
100028dc:	69d2      	ldr	r2, [r2, #28]
100028de:	6950      	ldr	r0, [r2, #20]
100028e0:	4a2a      	ldr	r2, [pc, #168]	; (1000298c <PWMSP001_lConfigureSecondSlice+0x248>)
100028e2:	4002      	ands	r2, r0
100028e4:	430a      	orrs	r2, r1
100028e6:	615a      	str	r2, [r3, #20]
      (uint32_t)CCU4_CC4_TC_TRPSW_Pos, HandlePtr->kTrapExitControl);

  WR_REG(HandlePtr->CC4yRegs1Ptr->TC, (uint32_t)CCU4_CC4_TC_TRAPE_Msk,\
100028e8:	687b      	ldr	r3, [r7, #4]
100028ea:	69db      	ldr	r3, [r3, #28]
100028ec:	687a      	ldr	r2, [r7, #4]
100028ee:	7c52      	ldrb	r2, [r2, #17]
100028f0:	0451      	lsls	r1, r2, #17
100028f2:	2280      	movs	r2, #128	; 0x80
100028f4:	0292      	lsls	r2, r2, #10
100028f6:	4011      	ands	r1, r2
100028f8:	687a      	ldr	r2, [r7, #4]
100028fa:	69d2      	ldr	r2, [r2, #28]
100028fc:	6950      	ldr	r0, [r2, #20]
100028fe:	4a20      	ldr	r2, [pc, #128]	; (10002980 <PWMSP001_lConfigureSecondSlice+0x23c>)
10002900:	4002      	ands	r2, r0
10002902:	430a      	orrs	r2, r1
10002904:	615a      	str	r2, [r3, #20]
	  (uint32_t)CCU4_CC4_TC_TRAPE_Pos, HandlePtr->kTrapEnable);
  
  WR_REG(HandlePtr->CC4yRegs1Ptr->PSC, (uint32_t)CCU4_CC4_PSC_PSIV_Msk, 
10002906:	687b      	ldr	r3, [r7, #4]
10002908:	69db      	ldr	r3, [r3, #28]
1000290a:	6879      	ldr	r1, [r7, #4]
1000290c:	2222      	movs	r2, #34	; 0x22
1000290e:	5c8a      	ldrb	r2, [r1, r2]
10002910:	1c11      	adds	r1, r2, #0
10002912:	220f      	movs	r2, #15
10002914:	4011      	ands	r1, r2
10002916:	687a      	ldr	r2, [r7, #4]
10002918:	69d2      	ldr	r2, [r2, #28]
1000291a:	6a52      	ldr	r2, [r2, #36]	; 0x24
1000291c:	200f      	movs	r0, #15
1000291e:	4382      	bics	r2, r0
10002920:	430a      	orrs	r2, r1
10002922:	625a      	str	r2, [r3, #36]	; 0x24
      (uint32_t)CCU4_CC4_PSC_PSIV_Pos, HandlePtr->kCCUPrescalar);

  HandlePtr->CC4yRegs1Ptr->PSL = HandlePtr->kPassiveLevel;
10002924:	687b      	ldr	r3, [r7, #4]
10002926:	69db      	ldr	r3, [r3, #28]
10002928:	687a      	ldr	r2, [r7, #4]
1000292a:	7c12      	ldrb	r2, [r2, #16]
1000292c:	619a      	str	r2, [r3, #24]

  HandlePtr->CC4yKernRegsPtr->GCSS |= (uint32_t)(((uint32_t)0x01 <<	\
1000292e:	687b      	ldr	r3, [r7, #4]
10002930:	695b      	ldr	r3, [r3, #20]
10002932:	687a      	ldr	r2, [r7, #4]
10002934:	6952      	ldr	r2, [r2, #20]
10002936:	6911      	ldr	r1, [r2, #16]
      ((uint32_t)4 * (uint32_t)HandlePtr->SecondSlice)) |	\
10002938:	6878      	ldr	r0, [r7, #4]
1000293a:	2238      	movs	r2, #56	; 0x38
1000293c:	5c82      	ldrb	r2, [r0, r2]
1000293e:	0092      	lsls	r2, r2, #2
  WR_REG(HandlePtr->CC4yRegs1Ptr->PSC, (uint32_t)CCU4_CC4_PSC_PSIV_Msk, 
      (uint32_t)CCU4_CC4_PSC_PSIV_Pos, HandlePtr->kCCUPrescalar);

  HandlePtr->CC4yRegs1Ptr->PSL = HandlePtr->kPassiveLevel;

  HandlePtr->CC4yKernRegsPtr->GCSS |= (uint32_t)(((uint32_t)0x01 <<	\
10002940:	2001      	movs	r0, #1
10002942:	4090      	lsls	r0, r2
      ((uint32_t)4 * (uint32_t)HandlePtr->SecondSlice)) |	\
      ((uint32_t)0x01 << (((uint32_t)4 * \
	    (uint32_t)HandlePtr->SecondSlice) + (uint32_t)1)) |\
10002944:	687c      	ldr	r4, [r7, #4]
10002946:	2238      	movs	r2, #56	; 0x38
10002948:	5ca2      	ldrb	r2, [r4, r2]

  HandlePtr->CC4yRegs1Ptr->PSL = HandlePtr->kPassiveLevel;

  HandlePtr->CC4yKernRegsPtr->GCSS |= (uint32_t)(((uint32_t)0x01 <<	\
      ((uint32_t)4 * (uint32_t)HandlePtr->SecondSlice)) |	\
      ((uint32_t)0x01 << (((uint32_t)4 * \
1000294a:	0092      	lsls	r2, r2, #2
	    (uint32_t)HandlePtr->SecondSlice) + (uint32_t)1)) |\
1000294c:	3201      	adds	r2, #1

  HandlePtr->CC4yRegs1Ptr->PSL = HandlePtr->kPassiveLevel;

  HandlePtr->CC4yKernRegsPtr->GCSS |= (uint32_t)(((uint32_t)0x01 <<	\
      ((uint32_t)4 * (uint32_t)HandlePtr->SecondSlice)) |	\
      ((uint32_t)0x01 << (((uint32_t)4 * \
1000294e:	2401      	movs	r4, #1
10002950:	1c25      	adds	r5, r4, #0
10002952:	4095      	lsls	r5, r2
10002954:	1c2a      	adds	r2, r5, #0
      (uint32_t)CCU4_CC4_PSC_PSIV_Pos, HandlePtr->kCCUPrescalar);

  HandlePtr->CC4yRegs1Ptr->PSL = HandlePtr->kPassiveLevel;

  HandlePtr->CC4yKernRegsPtr->GCSS |= (uint32_t)(((uint32_t)0x01 <<	\
      ((uint32_t)4 * (uint32_t)HandlePtr->SecondSlice)) |	\
10002956:	4310      	orrs	r0, r2
      ((uint32_t)0x01 << (((uint32_t)4 * \
	    (uint32_t)HandlePtr->SecondSlice) + (uint32_t)1)) |\
          (uint32_t)((uint32_t)0x01 << (((uint32_t)4 * \
		    (uint32_t)HandlePtr->SecondSlice) + (uint32_t)2)));
10002958:	687c      	ldr	r4, [r7, #4]
1000295a:	2238      	movs	r2, #56	; 0x38
1000295c:	5ca2      	ldrb	r2, [r4, r2]

  HandlePtr->CC4yKernRegsPtr->GCSS |= (uint32_t)(((uint32_t)0x01 <<	\
      ((uint32_t)4 * (uint32_t)HandlePtr->SecondSlice)) |	\
      ((uint32_t)0x01 << (((uint32_t)4 * \
	    (uint32_t)HandlePtr->SecondSlice) + (uint32_t)1)) |\
          (uint32_t)((uint32_t)0x01 << (((uint32_t)4 * \
1000295e:	0092      	lsls	r2, r2, #2
		    (uint32_t)HandlePtr->SecondSlice) + (uint32_t)2)));
10002960:	3202      	adds	r2, #2

  HandlePtr->CC4yKernRegsPtr->GCSS |= (uint32_t)(((uint32_t)0x01 <<	\
      ((uint32_t)4 * (uint32_t)HandlePtr->SecondSlice)) |	\
      ((uint32_t)0x01 << (((uint32_t)4 * \
	    (uint32_t)HandlePtr->SecondSlice) + (uint32_t)1)) |\
          (uint32_t)((uint32_t)0x01 << (((uint32_t)4 * \
10002962:	2401      	movs	r4, #1
10002964:	1c25      	adds	r5, r4, #0
10002966:	4095      	lsls	r5, r2
10002968:	1c2a      	adds	r2, r5, #0
  WR_REG(HandlePtr->CC4yRegs1Ptr->PSC, (uint32_t)CCU4_CC4_PSC_PSIV_Msk, 
      (uint32_t)CCU4_CC4_PSC_PSIV_Pos, HandlePtr->kCCUPrescalar);

  HandlePtr->CC4yRegs1Ptr->PSL = HandlePtr->kPassiveLevel;

  HandlePtr->CC4yKernRegsPtr->GCSS |= (uint32_t)(((uint32_t)0x01 <<	\
1000296a:	4302      	orrs	r2, r0
1000296c:	430a      	orrs	r2, r1
1000296e:	611a      	str	r2, [r3, #16]
      ((uint32_t)4 * (uint32_t)HandlePtr->SecondSlice)) |	\
      ((uint32_t)0x01 << (((uint32_t)4 * \
	    (uint32_t)HandlePtr->SecondSlice) + (uint32_t)1)) |\
          (uint32_t)((uint32_t)0x01 << (((uint32_t)4 * \
		    (uint32_t)HandlePtr->SecondSlice) + (uint32_t)2)));
}
10002970:	46bd      	mov	sp, r7
10002972:	b002      	add	sp, #8
10002974:	bdb0      	pop	{r4, r5, r7, pc}
10002976:	46c0      	nop			; (mov r8, r8)
10002978:	e7f3ffff 	.word	0xe7f3ffff
1000297c:	9ecfffff 	.word	0x9ecfffff
10002980:	fffdffff 	.word	0xfffdffff
10002984:	ffff98f4 	.word	0xffff98f4
10002988:	ffdfffff 	.word	0xffdfffff
1000298c:	ffbfffff 	.word	0xffbfffff

10002990 <PWMSP001_EnableEvent>:
status_t PWMSP001_EnableEvent
(
    const PWMSP001_HandleType * HandlePtr,
    const PWMSP001_EventNameType Event
)
{
10002990:	b590      	push	{r4, r7, lr}
10002992:	b085      	sub	sp, #20
10002994:	af00      	add	r7, sp, #0
10002996:	6078      	str	r0, [r7, #4]
10002998:	1c0a      	adds	r2, r1, #0
1000299a:	1cfb      	adds	r3, r7, #3
1000299c:	701a      	strb	r2, [r3, #0]
  status_t Status =(uint32_t) PWMSP001_OPER_NOT_ALLOWED_ERROR;
1000299e:	2301      	movs	r3, #1
100029a0:	60fb      	str	r3, [r7, #12]

  if (HandlePtr->DynamicDataType->StateType == PWMSP001_UNINITIALIZED)
100029a2:	687b      	ldr	r3, [r7, #4]
100029a4:	6bdb      	ldr	r3, [r3, #60]	; 0x3c
100029a6:	781b      	ldrb	r3, [r3, #0]
100029a8:	2b00      	cmp	r3, #0
100029aa:	d102      	bne.n	100029b2 <PWMSP001_EnableEvent+0x22>
  {
    Status =(uint32_t) PWMSP001_OPER_NOT_ALLOWED_ERROR;
100029ac:	2301      	movs	r3, #1
100029ae:	60fb      	str	r3, [r7, #12]
100029b0:	e025      	b.n	100029fe <PWMSP001_EnableEvent+0x6e>
    DBG002_INFO(APP_GID, DBG002_MESSAGEID_LITERAL, PWMSP001_STATUS_LEN, &Status);
  }
  else
  {
    if(HandlePtr->kTimerConcatenation == (uint8_t)SET)
100029b2:	687a      	ldr	r2, [r7, #4]
100029b4:	2320      	movs	r3, #32
100029b6:	5cd3      	ldrb	r3, [r2, r3]
100029b8:	2b01      	cmp	r3, #1
100029ba:	d10f      	bne.n	100029dc <PWMSP001_EnableEvent+0x4c>
    {
      SET_BIT(HandlePtr->CC4yRegs1Ptr->INTE,(uint8_t) Event);
100029bc:	687b      	ldr	r3, [r7, #4]
100029be:	69da      	ldr	r2, [r3, #28]
100029c0:	687b      	ldr	r3, [r7, #4]
100029c2:	69d9      	ldr	r1, [r3, #28]
100029c4:	23a4      	movs	r3, #164	; 0xa4
100029c6:	58c9      	ldr	r1, [r1, r3]
100029c8:	1cfb      	adds	r3, r7, #3
100029ca:	781b      	ldrb	r3, [r3, #0]
100029cc:	2001      	movs	r0, #1
100029ce:	1c04      	adds	r4, r0, #0
100029d0:	409c      	lsls	r4, r3
100029d2:	1c23      	adds	r3, r4, #0
100029d4:	4319      	orrs	r1, r3
100029d6:	23a4      	movs	r3, #164	; 0xa4
100029d8:	50d1      	str	r1, [r2, r3]
100029da:	e00e      	b.n	100029fa <PWMSP001_EnableEvent+0x6a>
    }
    else
    {
      SET_BIT(HandlePtr->CC4yRegsPtr->INTE,(uint8_t) Event);
100029dc:	687b      	ldr	r3, [r7, #4]
100029de:	699a      	ldr	r2, [r3, #24]
100029e0:	687b      	ldr	r3, [r7, #4]
100029e2:	6999      	ldr	r1, [r3, #24]
100029e4:	23a4      	movs	r3, #164	; 0xa4
100029e6:	58c9      	ldr	r1, [r1, r3]
100029e8:	1cfb      	adds	r3, r7, #3
100029ea:	781b      	ldrb	r3, [r3, #0]
100029ec:	2001      	movs	r0, #1
100029ee:	1c04      	adds	r4, r0, #0
100029f0:	409c      	lsls	r4, r3
100029f2:	1c23      	adds	r3, r4, #0
100029f4:	4319      	orrs	r1, r3
100029f6:	23a4      	movs	r3, #164	; 0xa4
100029f8:	50d1      	str	r1, [r2, r3]
    }
    Status = (uint32_t)DAVEApp_SUCCESS;
100029fa:	2300      	movs	r3, #0
100029fc:	60fb      	str	r3, [r7, #12]
  }
  return (Status);
100029fe:	68fb      	ldr	r3, [r7, #12]
}
10002a00:	1c18      	adds	r0, r3, #0
10002a02:	46bd      	mov	sp, r7
10002a04:	b005      	add	sp, #20
10002a06:	bd90      	pop	{r4, r7, pc}

10002a08 <PWMSP001_DisableEvent>:
status_t PWMSP001_DisableEvent
(
    const PWMSP001_HandleType * HandlePtr,
    const PWMSP001_EventNameType Event
)
{
10002a08:	b590      	push	{r4, r7, lr}
10002a0a:	b085      	sub	sp, #20
10002a0c:	af00      	add	r7, sp, #0
10002a0e:	6078      	str	r0, [r7, #4]
10002a10:	1c0a      	adds	r2, r1, #0
10002a12:	1cfb      	adds	r3, r7, #3
10002a14:	701a      	strb	r2, [r3, #0]
  status_t Status =(uint32_t) PWMSP001_OPER_NOT_ALLOWED_ERROR;
10002a16:	2301      	movs	r3, #1
10002a18:	60fb      	str	r3, [r7, #12]

  if (HandlePtr->DynamicDataType->StateType == PWMSP001_UNINITIALIZED)
10002a1a:	687b      	ldr	r3, [r7, #4]
10002a1c:	6bdb      	ldr	r3, [r3, #60]	; 0x3c
10002a1e:	781b      	ldrb	r3, [r3, #0]
10002a20:	2b00      	cmp	r3, #0
10002a22:	d102      	bne.n	10002a2a <PWMSP001_DisableEvent+0x22>
  {
    Status = (uint32_t)PWMSP001_OPER_NOT_ALLOWED_ERROR;
10002a24:	2301      	movs	r3, #1
10002a26:	60fb      	str	r3, [r7, #12]
10002a28:	e027      	b.n	10002a7a <PWMSP001_DisableEvent+0x72>
    DBG002_INFO(APP_GID, DBG002_MESSAGEID_LITERAL, PWMSP001_STATUS_LEN, &Status);
  }
  else
  {
    if(HandlePtr->kTimerConcatenation == (uint8_t)SET)
10002a2a:	687a      	ldr	r2, [r7, #4]
10002a2c:	2320      	movs	r3, #32
10002a2e:	5cd3      	ldrb	r3, [r2, r3]
10002a30:	2b01      	cmp	r3, #1
10002a32:	d110      	bne.n	10002a56 <PWMSP001_DisableEvent+0x4e>
    {
      CLR_BIT(HandlePtr->CC4yRegs1Ptr->INTE,(uint8_t) Event);
10002a34:	687b      	ldr	r3, [r7, #4]
10002a36:	69da      	ldr	r2, [r3, #28]
10002a38:	687b      	ldr	r3, [r7, #4]
10002a3a:	69d9      	ldr	r1, [r3, #28]
10002a3c:	23a4      	movs	r3, #164	; 0xa4
10002a3e:	58cb      	ldr	r3, [r1, r3]
10002a40:	1cf9      	adds	r1, r7, #3
10002a42:	7809      	ldrb	r1, [r1, #0]
10002a44:	2001      	movs	r0, #1
10002a46:	1c04      	adds	r4, r0, #0
10002a48:	408c      	lsls	r4, r1
10002a4a:	1c21      	adds	r1, r4, #0
10002a4c:	43c9      	mvns	r1, r1
10002a4e:	4019      	ands	r1, r3
10002a50:	23a4      	movs	r3, #164	; 0xa4
10002a52:	50d1      	str	r1, [r2, r3]
10002a54:	e00f      	b.n	10002a76 <PWMSP001_DisableEvent+0x6e>
    }
    else
    {
      CLR_BIT(HandlePtr->CC4yRegsPtr->INTE,(uint8_t) Event);
10002a56:	687b      	ldr	r3, [r7, #4]
10002a58:	699a      	ldr	r2, [r3, #24]
10002a5a:	687b      	ldr	r3, [r7, #4]
10002a5c:	6999      	ldr	r1, [r3, #24]
10002a5e:	23a4      	movs	r3, #164	; 0xa4
10002a60:	58cb      	ldr	r3, [r1, r3]
10002a62:	1cf9      	adds	r1, r7, #3
10002a64:	7809      	ldrb	r1, [r1, #0]
10002a66:	2001      	movs	r0, #1
10002a68:	1c04      	adds	r4, r0, #0
10002a6a:	408c      	lsls	r4, r1
10002a6c:	1c21      	adds	r1, r4, #0
10002a6e:	43c9      	mvns	r1, r1
10002a70:	4019      	ands	r1, r3
10002a72:	23a4      	movs	r3, #164	; 0xa4
10002a74:	50d1      	str	r1, [r2, r3]
    }
    Status = (uint32_t)DAVEApp_SUCCESS;
10002a76:	2300      	movs	r3, #0
10002a78:	60fb      	str	r3, [r7, #12]
  }
  return (Status);
10002a7a:	68fb      	ldr	r3, [r7, #12]
}
10002a7c:	1c18      	adds	r0, r3, #0
10002a7e:	46bd      	mov	sp, r7
10002a80:	b005      	add	sp, #20
10002a82:	bd90      	pop	{r4, r7, pc}

10002a84 <PWMSP001_ClearPendingEvent>:
status_t PWMSP001_ClearPendingEvent
(
    const PWMSP001_HandleType * HandlePtr,
    const PWMSP001_EventNameType Event
)
{
10002a84:	b590      	push	{r4, r7, lr}
10002a86:	b085      	sub	sp, #20
10002a88:	af00      	add	r7, sp, #0
10002a8a:	6078      	str	r0, [r7, #4]
10002a8c:	1c0a      	adds	r2, r1, #0
10002a8e:	1cfb      	adds	r3, r7, #3
10002a90:	701a      	strb	r2, [r3, #0]
  status_t Status =(uint32_t) PWMSP001_OPER_NOT_ALLOWED_ERROR;
10002a92:	2301      	movs	r3, #1
10002a94:	60fb      	str	r3, [r7, #12]

  if (HandlePtr->DynamicDataType->StateType == PWMSP001_UNINITIALIZED)
10002a96:	687b      	ldr	r3, [r7, #4]
10002a98:	6bdb      	ldr	r3, [r3, #60]	; 0x3c
10002a9a:	781b      	ldrb	r3, [r3, #0]
10002a9c:	2b00      	cmp	r3, #0
10002a9e:	d102      	bne.n	10002aa6 <PWMSP001_ClearPendingEvent+0x22>
  {
    Status =(uint32_t) PWMSP001_OPER_NOT_ALLOWED_ERROR;
10002aa0:	2301      	movs	r3, #1
10002aa2:	60fb      	str	r3, [r7, #12]
10002aa4:	e025      	b.n	10002af2 <PWMSP001_ClearPendingEvent+0x6e>
    DBG002_INFO(APP_GID, DBG002_MESSAGEID_LITERAL, PWMSP001_STATUS_LEN, &Status);
  }
  else
  {
    if(HandlePtr->kTimerConcatenation == (uint8_t)SET)
10002aa6:	687a      	ldr	r2, [r7, #4]
10002aa8:	2320      	movs	r3, #32
10002aaa:	5cd3      	ldrb	r3, [r2, r3]
10002aac:	2b01      	cmp	r3, #1
10002aae:	d10f      	bne.n	10002ad0 <PWMSP001_ClearPendingEvent+0x4c>
    {
      SET_BIT(HandlePtr->CC4yRegs1Ptr->SWR,(uint8_t) Event);
10002ab0:	687b      	ldr	r3, [r7, #4]
10002ab2:	69da      	ldr	r2, [r3, #28]
10002ab4:	687b      	ldr	r3, [r7, #4]
10002ab6:	69d9      	ldr	r1, [r3, #28]
10002ab8:	23b0      	movs	r3, #176	; 0xb0
10002aba:	58c9      	ldr	r1, [r1, r3]
10002abc:	1cfb      	adds	r3, r7, #3
10002abe:	781b      	ldrb	r3, [r3, #0]
10002ac0:	2001      	movs	r0, #1
10002ac2:	1c04      	adds	r4, r0, #0
10002ac4:	409c      	lsls	r4, r3
10002ac6:	1c23      	adds	r3, r4, #0
10002ac8:	4319      	orrs	r1, r3
10002aca:	23b0      	movs	r3, #176	; 0xb0
10002acc:	50d1      	str	r1, [r2, r3]
10002ace:	e00e      	b.n	10002aee <PWMSP001_ClearPendingEvent+0x6a>
    }
    else
    {
      SET_BIT(HandlePtr->CC4yRegsPtr->SWR, (uint8_t)Event);
10002ad0:	687b      	ldr	r3, [r7, #4]
10002ad2:	699a      	ldr	r2, [r3, #24]
10002ad4:	687b      	ldr	r3, [r7, #4]
10002ad6:	6999      	ldr	r1, [r3, #24]
10002ad8:	23b0      	movs	r3, #176	; 0xb0
10002ada:	58c9      	ldr	r1, [r1, r3]
10002adc:	1cfb      	adds	r3, r7, #3
10002ade:	781b      	ldrb	r3, [r3, #0]
10002ae0:	2001      	movs	r0, #1
10002ae2:	1c04      	adds	r4, r0, #0
10002ae4:	409c      	lsls	r4, r3
10002ae6:	1c23      	adds	r3, r4, #0
10002ae8:	4319      	orrs	r1, r3
10002aea:	23b0      	movs	r3, #176	; 0xb0
10002aec:	50d1      	str	r1, [r2, r3]
    }
    Status = (uint32_t)DAVEApp_SUCCESS;
10002aee:	2300      	movs	r3, #0
10002af0:	60fb      	str	r3, [r7, #12]
  }
  return (Status);
10002af2:	68fb      	ldr	r3, [r7, #12]
}
10002af4:	1c18      	adds	r0, r3, #0
10002af6:	46bd      	mov	sp, r7
10002af8:	b005      	add	sp, #20
10002afa:	bd90      	pop	{r4, r7, pc}

10002afc <PWMSP001_SetPendingEvent>:
status_t PWMSP001_SetPendingEvent
(
    const PWMSP001_HandleType * HandlePtr,
    const PWMSP001_EventNameType Event
)
{
10002afc:	b590      	push	{r4, r7, lr}
10002afe:	b085      	sub	sp, #20
10002b00:	af00      	add	r7, sp, #0
10002b02:	6078      	str	r0, [r7, #4]
10002b04:	1c0a      	adds	r2, r1, #0
10002b06:	1cfb      	adds	r3, r7, #3
10002b08:	701a      	strb	r2, [r3, #0]
  status_t Status = (uint32_t)PWMSP001_OPER_NOT_ALLOWED_ERROR;
10002b0a:	2301      	movs	r3, #1
10002b0c:	60fb      	str	r3, [r7, #12]

  if (HandlePtr->DynamicDataType->StateType == PWMSP001_UNINITIALIZED)
10002b0e:	687b      	ldr	r3, [r7, #4]
10002b10:	6bdb      	ldr	r3, [r3, #60]	; 0x3c
10002b12:	781b      	ldrb	r3, [r3, #0]
10002b14:	2b00      	cmp	r3, #0
10002b16:	d102      	bne.n	10002b1e <PWMSP001_SetPendingEvent+0x22>
  {
    Status = (uint32_t)PWMSP001_OPER_NOT_ALLOWED_ERROR;
10002b18:	2301      	movs	r3, #1
10002b1a:	60fb      	str	r3, [r7, #12]
10002b1c:	e025      	b.n	10002b6a <PWMSP001_SetPendingEvent+0x6e>
    DBG002_INFO(APP_GID, DBG002_MESSAGEID_LITERAL, PWMSP001_STATUS_LEN, &Status);
  }
  else
  {
    if(HandlePtr->kTimerConcatenation == (uint8_t)SET)
10002b1e:	687a      	ldr	r2, [r7, #4]
10002b20:	2320      	movs	r3, #32
10002b22:	5cd3      	ldrb	r3, [r2, r3]
10002b24:	2b01      	cmp	r3, #1
10002b26:	d10f      	bne.n	10002b48 <PWMSP001_SetPendingEvent+0x4c>
    {
      SET_BIT(HandlePtr->CC4yRegs1Ptr->SWS,(uint8_t)Event);
10002b28:	687b      	ldr	r3, [r7, #4]
10002b2a:	69da      	ldr	r2, [r3, #28]
10002b2c:	687b      	ldr	r3, [r7, #4]
10002b2e:	69d9      	ldr	r1, [r3, #28]
10002b30:	23ac      	movs	r3, #172	; 0xac
10002b32:	58c9      	ldr	r1, [r1, r3]
10002b34:	1cfb      	adds	r3, r7, #3
10002b36:	781b      	ldrb	r3, [r3, #0]
10002b38:	2001      	movs	r0, #1
10002b3a:	1c04      	adds	r4, r0, #0
10002b3c:	409c      	lsls	r4, r3
10002b3e:	1c23      	adds	r3, r4, #0
10002b40:	4319      	orrs	r1, r3
10002b42:	23ac      	movs	r3, #172	; 0xac
10002b44:	50d1      	str	r1, [r2, r3]
10002b46:	e00e      	b.n	10002b66 <PWMSP001_SetPendingEvent+0x6a>
    }
    else
    {
      SET_BIT(HandlePtr->CC4yRegsPtr->SWS, (uint8_t)Event);
10002b48:	687b      	ldr	r3, [r7, #4]
10002b4a:	699a      	ldr	r2, [r3, #24]
10002b4c:	687b      	ldr	r3, [r7, #4]
10002b4e:	6999      	ldr	r1, [r3, #24]
10002b50:	23ac      	movs	r3, #172	; 0xac
10002b52:	58c9      	ldr	r1, [r1, r3]
10002b54:	1cfb      	adds	r3, r7, #3
10002b56:	781b      	ldrb	r3, [r3, #0]
10002b58:	2001      	movs	r0, #1
10002b5a:	1c04      	adds	r4, r0, #0
10002b5c:	409c      	lsls	r4, r3
10002b5e:	1c23      	adds	r3, r4, #0
10002b60:	4319      	orrs	r1, r3
10002b62:	23ac      	movs	r3, #172	; 0xac
10002b64:	50d1      	str	r1, [r2, r3]
    }
    Status = (uint32_t)DAVEApp_SUCCESS;
10002b66:	2300      	movs	r3, #0
10002b68:	60fb      	str	r3, [r7, #12]
  }
  return (Status);
10002b6a:	68fb      	ldr	r3, [r7, #12]
}
10002b6c:	1c18      	adds	r0, r3, #0
10002b6e:	46bd      	mov	sp, r7
10002b70:	b005      	add	sp, #20
10002b72:	bd90      	pop	{r4, r7, pc}

10002b74 <PWMSP001_GetPendingEvent>:
(
    const PWMSP001_HandleType * HandlePtr,
    const PWMSP001_EventNameType Event,
    uint8_t*EvtStatus
)
{
10002b74:	b580      	push	{r7, lr}
10002b76:	b086      	sub	sp, #24
10002b78:	af00      	add	r7, sp, #0
10002b7a:	60f8      	str	r0, [r7, #12]
10002b7c:	607a      	str	r2, [r7, #4]
10002b7e:	1c3b      	adds	r3, r7, #0
10002b80:	330b      	adds	r3, #11
10002b82:	1c0a      	adds	r2, r1, #0
10002b84:	701a      	strb	r2, [r3, #0]
  status_t Status = (uint32_t)PWMSP001_OPER_NOT_ALLOWED_ERROR;
10002b86:	2301      	movs	r3, #1
10002b88:	617b      	str	r3, [r7, #20]

  if (HandlePtr->DynamicDataType->StateType == PWMSP001_UNINITIALIZED)
10002b8a:	68fb      	ldr	r3, [r7, #12]
10002b8c:	6bdb      	ldr	r3, [r3, #60]	; 0x3c
10002b8e:	781b      	ldrb	r3, [r3, #0]
10002b90:	2b00      	cmp	r3, #0
10002b92:	d102      	bne.n	10002b9a <PWMSP001_GetPendingEvent+0x26>
  {
    Status =(uint32_t) PWMSP001_OPER_NOT_ALLOWED_ERROR;
10002b94:	2301      	movs	r3, #1
10002b96:	617b      	str	r3, [r7, #20]
10002b98:	e03d      	b.n	10002c16 <PWMSP001_GetPendingEvent+0xa2>
    DBG002_INFO(APP_GID, DBG002_MESSAGEID_LITERAL, PWMSP001_STATUS_LEN, &Status);
  }
  else
  {
    if(HandlePtr->kTimerConcatenation == (uint8_t)SET)
10002b9a:	68fa      	ldr	r2, [r7, #12]
10002b9c:	2320      	movs	r3, #32
10002b9e:	5cd3      	ldrb	r3, [r2, r3]
10002ba0:	2b01      	cmp	r3, #1
10002ba2:	d11b      	bne.n	10002bdc <PWMSP001_GetPendingEvent+0x68>
    {

      if(RD_REG(HandlePtr->CC4yRegs1Ptr->INTS, ((uint32_t)0x01 <<(uint32_t)Event), (uint32_t)Event))
10002ba4:	68fb      	ldr	r3, [r7, #12]
10002ba6:	69da      	ldr	r2, [r3, #28]
10002ba8:	23a0      	movs	r3, #160	; 0xa0
10002baa:	58d3      	ldr	r3, [r2, r3]
10002bac:	1c3a      	adds	r2, r7, #0
10002bae:	320b      	adds	r2, #11
10002bb0:	7812      	ldrb	r2, [r2, #0]
10002bb2:	2101      	movs	r1, #1
10002bb4:	1c08      	adds	r0, r1, #0
10002bb6:	4090      	lsls	r0, r2
10002bb8:	1c02      	adds	r2, r0, #0
10002bba:	401a      	ands	r2, r3
10002bbc:	1c3b      	adds	r3, r7, #0
10002bbe:	330b      	adds	r3, #11
10002bc0:	781b      	ldrb	r3, [r3, #0]
10002bc2:	1c11      	adds	r1, r2, #0
10002bc4:	40d9      	lsrs	r1, r3
10002bc6:	1c0b      	adds	r3, r1, #0
10002bc8:	2b00      	cmp	r3, #0
10002bca:	d003      	beq.n	10002bd4 <PWMSP001_GetPendingEvent+0x60>
	  {
	      *EvtStatus = (uint8_t)SET;
10002bcc:	687b      	ldr	r3, [r7, #4]
10002bce:	2201      	movs	r2, #1
10002bd0:	701a      	strb	r2, [r3, #0]
10002bd2:	e01e      	b.n	10002c12 <PWMSP001_GetPendingEvent+0x9e>
	  }
	  else
	  {
	      *EvtStatus = (uint8_t)RESET;
10002bd4:	687b      	ldr	r3, [r7, #4]
10002bd6:	2200      	movs	r2, #0
10002bd8:	701a      	strb	r2, [r3, #0]
10002bda:	e01a      	b.n	10002c12 <PWMSP001_GetPendingEvent+0x9e>
	  }
    }
    else
    {
      if(RD_REG(HandlePtr->CC4yRegsPtr->INTS, ((uint32_t)0x01 << (uint32_t)Event),(uint32_t)Event))
10002bdc:	68fb      	ldr	r3, [r7, #12]
10002bde:	699a      	ldr	r2, [r3, #24]
10002be0:	23a0      	movs	r3, #160	; 0xa0
10002be2:	58d3      	ldr	r3, [r2, r3]
10002be4:	1c3a      	adds	r2, r7, #0
10002be6:	320b      	adds	r2, #11
10002be8:	7812      	ldrb	r2, [r2, #0]
10002bea:	2101      	movs	r1, #1
10002bec:	1c08      	adds	r0, r1, #0
10002bee:	4090      	lsls	r0, r2
10002bf0:	1c02      	adds	r2, r0, #0
10002bf2:	401a      	ands	r2, r3
10002bf4:	1c3b      	adds	r3, r7, #0
10002bf6:	330b      	adds	r3, #11
10002bf8:	781b      	ldrb	r3, [r3, #0]
10002bfa:	1c11      	adds	r1, r2, #0
10002bfc:	40d9      	lsrs	r1, r3
10002bfe:	1c0b      	adds	r3, r1, #0
10002c00:	2b00      	cmp	r3, #0
10002c02:	d003      	beq.n	10002c0c <PWMSP001_GetPendingEvent+0x98>
      {
        *EvtStatus = (uint8_t)SET;
10002c04:	687b      	ldr	r3, [r7, #4]
10002c06:	2201      	movs	r2, #1
10002c08:	701a      	strb	r2, [r3, #0]
10002c0a:	e002      	b.n	10002c12 <PWMSP001_GetPendingEvent+0x9e>
      }
      else
      {
        *EvtStatus = (uint8_t)RESET;
10002c0c:	687b      	ldr	r3, [r7, #4]
10002c0e:	2200      	movs	r2, #0
10002c10:	701a      	strb	r2, [r3, #0]
      }
      /* *EvtStatus = RD_REG(HandlePtr->CC4yRegsPtr->INTS, (0x01 << (uint8_t)Event),(uint8_t) Event)\
	   ? (uint8_t)SET : (uint8_t)RESET;	*/
    }
    Status = (uint32_t)DAVEApp_SUCCESS;
10002c12:	2300      	movs	r3, #0
10002c14:	617b      	str	r3, [r7, #20]
  }
  return (Status);
10002c16:	697b      	ldr	r3, [r7, #20]
}
10002c18:	1c18      	adds	r0, r3, #0
10002c1a:	46bd      	mov	sp, r7
10002c1c:	b006      	add	sp, #24
10002c1e:	bd80      	pop	{r7, pc}

10002c20 <NVIC_EnableIRQ>:
    The function enables a device-specific interrupt in the NVIC interrupt controller.

    \param [in]      IRQn  External interrupt number. Value cannot be negative.
 */
__STATIC_INLINE void NVIC_EnableIRQ(IRQn_Type IRQn)
{
10002c20:	b580      	push	{r7, lr}
10002c22:	b082      	sub	sp, #8
10002c24:	af00      	add	r7, sp, #0
10002c26:	1c02      	adds	r2, r0, #0
10002c28:	1dfb      	adds	r3, r7, #7
10002c2a:	701a      	strb	r2, [r3, #0]
  NVIC->ISER[0] = (1 << ((uint32_t)(IRQn) & 0x1F));
10002c2c:	4b06      	ldr	r3, [pc, #24]	; (10002c48 <NVIC_EnableIRQ+0x28>)
10002c2e:	1dfa      	adds	r2, r7, #7
10002c30:	7812      	ldrb	r2, [r2, #0]
10002c32:	1c11      	adds	r1, r2, #0
10002c34:	221f      	movs	r2, #31
10002c36:	400a      	ands	r2, r1
10002c38:	2101      	movs	r1, #1
10002c3a:	1c08      	adds	r0, r1, #0
10002c3c:	4090      	lsls	r0, r2
10002c3e:	1c02      	adds	r2, r0, #0
10002c40:	601a      	str	r2, [r3, #0]
}
10002c42:	46bd      	mov	sp, r7
10002c44:	b002      	add	sp, #8
10002c46:	bd80      	pop	{r7, pc}
10002c48:	e000e100 	.word	0xe000e100

10002c4c <NVIC_SetPriority>:

    \param [in]      IRQn  Interrupt number.
    \param [in]  priority  Priority to set.
 */
__STATIC_INLINE void NVIC_SetPriority(IRQn_Type IRQn, uint32_t priority)
{
10002c4c:	b5b0      	push	{r4, r5, r7, lr}
10002c4e:	b082      	sub	sp, #8
10002c50:	af00      	add	r7, sp, #0
10002c52:	1c02      	adds	r2, r0, #0
10002c54:	6039      	str	r1, [r7, #0]
10002c56:	1dfb      	adds	r3, r7, #7
10002c58:	701a      	strb	r2, [r3, #0]
  if(IRQn < 0) {
10002c5a:	1dfb      	adds	r3, r7, #7
10002c5c:	781b      	ldrb	r3, [r3, #0]
10002c5e:	2b7f      	cmp	r3, #127	; 0x7f
10002c60:	d932      	bls.n	10002cc8 <NVIC_SetPriority+0x7c>
    SCB->SHP[_SHP_IDX(IRQn)] = (SCB->SHP[_SHP_IDX(IRQn)] & ~(0xFF << _BIT_SHIFT(IRQn))) |
10002c62:	4930      	ldr	r1, [pc, #192]	; (10002d24 <NVIC_SetPriority+0xd8>)
10002c64:	1dfb      	adds	r3, r7, #7
10002c66:	781b      	ldrb	r3, [r3, #0]
10002c68:	1c1a      	adds	r2, r3, #0
10002c6a:	230f      	movs	r3, #15
10002c6c:	4013      	ands	r3, r2
10002c6e:	3b08      	subs	r3, #8
10002c70:	0898      	lsrs	r0, r3, #2
10002c72:	4a2c      	ldr	r2, [pc, #176]	; (10002d24 <NVIC_SetPriority+0xd8>)
10002c74:	1dfb      	adds	r3, r7, #7
10002c76:	781b      	ldrb	r3, [r3, #0]
10002c78:	1c1c      	adds	r4, r3, #0
10002c7a:	230f      	movs	r3, #15
10002c7c:	4023      	ands	r3, r4
10002c7e:	3b08      	subs	r3, #8
10002c80:	089b      	lsrs	r3, r3, #2
10002c82:	3306      	adds	r3, #6
10002c84:	009b      	lsls	r3, r3, #2
10002c86:	18d3      	adds	r3, r2, r3
10002c88:	685b      	ldr	r3, [r3, #4]
10002c8a:	1dfa      	adds	r2, r7, #7
10002c8c:	7812      	ldrb	r2, [r2, #0]
10002c8e:	1c14      	adds	r4, r2, #0
10002c90:	2203      	movs	r2, #3
10002c92:	4022      	ands	r2, r4
10002c94:	00d2      	lsls	r2, r2, #3
10002c96:	24ff      	movs	r4, #255	; 0xff
10002c98:	1c25      	adds	r5, r4, #0
10002c9a:	4095      	lsls	r5, r2
10002c9c:	1c2a      	adds	r2, r5, #0
10002c9e:	43d2      	mvns	r2, r2
10002ca0:	401a      	ands	r2, r3
        (((priority << (8 - __NVIC_PRIO_BITS)) & 0xFF) << _BIT_SHIFT(IRQn)); }
10002ca2:	683b      	ldr	r3, [r7, #0]
10002ca4:	019c      	lsls	r4, r3, #6
10002ca6:	23ff      	movs	r3, #255	; 0xff
10002ca8:	401c      	ands	r4, r3
10002caa:	1dfb      	adds	r3, r7, #7
10002cac:	781b      	ldrb	r3, [r3, #0]
10002cae:	1c1d      	adds	r5, r3, #0
10002cb0:	2303      	movs	r3, #3
10002cb2:	402b      	ands	r3, r5
10002cb4:	00db      	lsls	r3, r3, #3
10002cb6:	1c25      	adds	r5, r4, #0
10002cb8:	409d      	lsls	r5, r3
10002cba:	1c2b      	adds	r3, r5, #0
    \param [in]  priority  Priority to set.
 */
__STATIC_INLINE void NVIC_SetPriority(IRQn_Type IRQn, uint32_t priority)
{
  if(IRQn < 0) {
    SCB->SHP[_SHP_IDX(IRQn)] = (SCB->SHP[_SHP_IDX(IRQn)] & ~(0xFF << _BIT_SHIFT(IRQn))) |
10002cbc:	431a      	orrs	r2, r3
10002cbe:	1d83      	adds	r3, r0, #6
10002cc0:	009b      	lsls	r3, r3, #2
10002cc2:	18cb      	adds	r3, r1, r3
10002cc4:	605a      	str	r2, [r3, #4]
10002cc6:	e029      	b.n	10002d1c <NVIC_SetPriority+0xd0>
        (((priority << (8 - __NVIC_PRIO_BITS)) & 0xFF) << _BIT_SHIFT(IRQn)); }
  else {
    NVIC->IP[_IP_IDX(IRQn)] = (NVIC->IP[_IP_IDX(IRQn)] & ~(0xFF << _BIT_SHIFT(IRQn))) |
10002cc8:	4b17      	ldr	r3, [pc, #92]	; (10002d28 <NVIC_SetPriority+0xdc>)
10002cca:	1dfa      	adds	r2, r7, #7
10002ccc:	7812      	ldrb	r2, [r2, #0]
10002cce:	b252      	sxtb	r2, r2
10002cd0:	0892      	lsrs	r2, r2, #2
10002cd2:	4915      	ldr	r1, [pc, #84]	; (10002d28 <NVIC_SetPriority+0xdc>)
10002cd4:	1df8      	adds	r0, r7, #7
10002cd6:	7800      	ldrb	r0, [r0, #0]
10002cd8:	b240      	sxtb	r0, r0
10002cda:	0880      	lsrs	r0, r0, #2
10002cdc:	30c0      	adds	r0, #192	; 0xc0
10002cde:	0080      	lsls	r0, r0, #2
10002ce0:	5841      	ldr	r1, [r0, r1]
10002ce2:	1df8      	adds	r0, r7, #7
10002ce4:	7800      	ldrb	r0, [r0, #0]
10002ce6:	1c04      	adds	r4, r0, #0
10002ce8:	2003      	movs	r0, #3
10002cea:	4020      	ands	r0, r4
10002cec:	00c0      	lsls	r0, r0, #3
10002cee:	24ff      	movs	r4, #255	; 0xff
10002cf0:	1c25      	adds	r5, r4, #0
10002cf2:	4085      	lsls	r5, r0
10002cf4:	1c28      	adds	r0, r5, #0
10002cf6:	43c0      	mvns	r0, r0
10002cf8:	4008      	ands	r0, r1
        (((priority << (8 - __NVIC_PRIO_BITS)) & 0xFF) << _BIT_SHIFT(IRQn)); }
10002cfa:	6839      	ldr	r1, [r7, #0]
10002cfc:	018c      	lsls	r4, r1, #6
10002cfe:	21ff      	movs	r1, #255	; 0xff
10002d00:	400c      	ands	r4, r1
10002d02:	1df9      	adds	r1, r7, #7
10002d04:	7809      	ldrb	r1, [r1, #0]
10002d06:	1c0d      	adds	r5, r1, #0
10002d08:	2103      	movs	r1, #3
10002d0a:	4029      	ands	r1, r5
10002d0c:	00c9      	lsls	r1, r1, #3
10002d0e:	1c25      	adds	r5, r4, #0
10002d10:	408d      	lsls	r5, r1
10002d12:	1c29      	adds	r1, r5, #0
{
  if(IRQn < 0) {
    SCB->SHP[_SHP_IDX(IRQn)] = (SCB->SHP[_SHP_IDX(IRQn)] & ~(0xFF << _BIT_SHIFT(IRQn))) |
        (((priority << (8 - __NVIC_PRIO_BITS)) & 0xFF) << _BIT_SHIFT(IRQn)); }
  else {
    NVIC->IP[_IP_IDX(IRQn)] = (NVIC->IP[_IP_IDX(IRQn)] & ~(0xFF << _BIT_SHIFT(IRQn))) |
10002d14:	4301      	orrs	r1, r0
10002d16:	32c0      	adds	r2, #192	; 0xc0
10002d18:	0092      	lsls	r2, r2, #2
10002d1a:	50d1      	str	r1, [r2, r3]
        (((priority << (8 - __NVIC_PRIO_BITS)) & 0xFF) << _BIT_SHIFT(IRQn)); }
}
10002d1c:	46bd      	mov	sp, r7
10002d1e:	b002      	add	sp, #8
10002d20:	bdb0      	pop	{r4, r5, r7, pc}
10002d22:	46c0      	nop			; (mov r8, r8)
10002d24:	e000ed00 	.word	0xe000ed00
10002d28:	e000e100 	.word	0xe000e100

10002d2c <NVIC002_EnableIRQ>:
 *    NVIC002_EnableIRQ(&NVIC002_Handle0);
 *    return 0;
 *  }
 * @endcode<BR> </p>
 */
__STATIC_INLINE void NVIC002_EnableIRQ (const NVIC002_HandleType *const Handle) {
10002d2c:	b580      	push	{r7, lr}
10002d2e:	b082      	sub	sp, #8
10002d30:	af00      	add	r7, sp, #0
10002d32:	6078      	str	r0, [r7, #4]
    NVIC_EnableIRQ((IRQn_Type)(Handle->NodeID));
10002d34:	687b      	ldr	r3, [r7, #4]
10002d36:	781b      	ldrb	r3, [r3, #0]
10002d38:	b2db      	uxtb	r3, r3
10002d3a:	b25b      	sxtb	r3, r3
10002d3c:	1c18      	adds	r0, r3, #0
10002d3e:	f7ff ff6f 	bl	10002c20 <NVIC_EnableIRQ>
}
10002d42:	46bd      	mov	sp, r7
10002d44:	b002      	add	sp, #8
10002d46:	bd80      	pop	{r7, pc}

10002d48 <NVIC002_Init>:

/**  Function to initialize the NVIC node parameters based on 
 *  UI configuration.
 */
void NVIC002_Init(void)
{
10002d48:	b580      	push	{r7, lr}
10002d4a:	b082      	sub	sp, #8
10002d4c:	af00      	add	r7, sp, #0
  uint32_t Count;
  for (Count = 0U; Count<(uint32_t)NVIC002_NUM_INSTANCES; Count++)
10002d4e:	2300      	movs	r3, #0
10002d50:	607b      	str	r3, [r7, #4]
10002d52:	e009      	b.n	10002d68 <NVIC002_Init+0x20>
  {
	  NVIC002_lInit(NVIC002_HandleArray[Count]);
10002d54:	4b07      	ldr	r3, [pc, #28]	; (10002d74 <NVIC002_Init+0x2c>)
10002d56:	687a      	ldr	r2, [r7, #4]
10002d58:	0092      	lsls	r2, r2, #2
10002d5a:	58d3      	ldr	r3, [r2, r3]
10002d5c:	1c18      	adds	r0, r3, #0
10002d5e:	f000 f80b 	bl	10002d78 <NVIC002_lInit>
 *  UI configuration.
 */
void NVIC002_Init(void)
{
  uint32_t Count;
  for (Count = 0U; Count<(uint32_t)NVIC002_NUM_INSTANCES; Count++)
10002d62:	687b      	ldr	r3, [r7, #4]
10002d64:	3301      	adds	r3, #1
10002d66:	607b      	str	r3, [r7, #4]
10002d68:	687b      	ldr	r3, [r7, #4]
10002d6a:	2b00      	cmp	r3, #0
10002d6c:	d0f2      	beq.n	10002d54 <NVIC002_Init+0xc>
  {
	  NVIC002_lInit(NVIC002_HandleArray[Count]);
  }
}
10002d6e:	46bd      	mov	sp, r7
10002d70:	b002      	add	sp, #8
10002d72:	bd80      	pop	{r7, pc}
10002d74:	20000940 	.word	0x20000940

10002d78 <NVIC002_lInit>:

static void NVIC002_lInit(const NVIC002_HandleType * Handle)
{
10002d78:	b580      	push	{r7, lr}
10002d7a:	b082      	sub	sp, #8
10002d7c:	af00      	add	r7, sp, #0
10002d7e:	6078      	str	r0, [r7, #4]
   /* Set Interrupt Priority for NVIC <%=NodeID%> 
      Node App Instance <%=appInst%>  */
	#if (UC_FAMILY == XMC1) 
	   NVIC_SetPriority((IRQn_Type)Handle->NodeID, 
10002d80:	687b      	ldr	r3, [r7, #4]
10002d82:	781b      	ldrb	r3, [r3, #0]
10002d84:	b2da      	uxtb	r2, r3
			             Handle->Priority);
10002d86:	687b      	ldr	r3, [r7, #4]
10002d88:	785b      	ldrb	r3, [r3, #1]
static void NVIC002_lInit(const NVIC002_HandleType * Handle)
{
   /* Set Interrupt Priority for NVIC <%=NodeID%> 
      Node App Instance <%=appInst%>  */
	#if (UC_FAMILY == XMC1) 
	   NVIC_SetPriority((IRQn_Type)Handle->NodeID, 
10002d8a:	b252      	sxtb	r2, r2
10002d8c:	1c10      	adds	r0, r2, #0
10002d8e:	1c19      	adds	r1, r3, #0
10002d90:	f7ff ff5c 	bl	10002c4c <NVIC_SetPriority>
	   NVIC_SetPriority((IRQn_Type)Handle->NodeID, 
			   	   	     NVIC_EncodePriority(NVIC_GetPriorityGrouping(),
			   	   	     Handle->Priority,
			   	   	     Handle->SubPriority));
	#endif
	if(Handle->InterruptEnable == 1)
10002d94:	687b      	ldr	r3, [r7, #4]
10002d96:	78db      	ldrb	r3, [r3, #3]
10002d98:	2b01      	cmp	r3, #1
10002d9a:	d103      	bne.n	10002da4 <NVIC002_lInit+0x2c>
	{
	   /* Enable Interrupt */
		NVIC002_EnableIRQ(Handle);
10002d9c:	687b      	ldr	r3, [r7, #4]
10002d9e:	1c18      	adds	r0, r3, #0
10002da0:	f7ff ffc4 	bl	10002d2c <NVIC002_EnableIRQ>
	}
   
}
10002da4:	46bd      	mov	sp, r7
10002da6:	b002      	add	sp, #8
10002da8:	bd80      	pop	{r7, pc}
10002daa:	46c0      	nop			; (mov r8, r8)

10002dac <DAVE_Init>:
// @Parameters    None
//
//****************************************************************************

void DAVE_Init(void)
{
10002dac:	b580      	push	{r7, lr}
10002dae:	af00      	add	r7, sp, #0

//****************************************************************************
// @Initialization of APPs Init Functions
//****************************************************************************
	//  MUX configurations
	DAVE_MUX_PreInit(); 
10002db0:	f000 f828 	bl	10002e04 <DAVE_MUX_PreInit>
	//  Initialization of app 'CLK002'		     
	CLK002_Init();
10002db4:	f000 f82a 	bl	10002e0c <CLK002_Init>
	 
	//  Initialization of app 'CCU4GLOBAL'		     
	CCU4GLOBAL_Init();
10002db8:	f000 f93c 	bl	10003034 <CCU4GLOBAL_Init>
	 
	//  Initialization of app 'PWMSP001'		     
	PWMSP001_Init();
10002dbc:	f7fe fbd8 	bl	10001570 <PWMSP001_Init>
	 
	//  Initialization of app 'NVIC002'		     
	NVIC002_Init();
10002dc0:	f7ff ffc2 	bl	10002d48 <NVIC002_Init>
	
      
	//  MUX configurations
	DAVE_MUX_Init();	
10002dc4:	f000 f802 	bl	10002dcc <DAVE_MUX_Init>
} //  End of function DAVE_Init
10002dc8:	46bd      	mov	sp, r7
10002dca:	bd80      	pop	{r7, pc}

10002dcc <DAVE_MUX_Init>:
** Description      : This is the Mux configuration                           **
**                                                                            **
*******************************************************************************/
           
void DAVE_MUX_Init(void)
{  
10002dcc:	b580      	push	{r7, lr}
10002dce:	af00      	add	r7, sp, #0
       /*        SCU Macro definitions     */                  
        //********* Capture/Compare Unit 4 (CAPCOM4) CONFIGURATIONS ************************* 
                       
    // Configuring CCU40_CC40SRS  =  Service Request Selector

    WR_REG(CCU40_CC40->SRS, CCU4_CC4_SRS_POSR_Msk, CCU4_CC4_SRS_POSR_Pos, CCU_SR3);    
10002dd0:	4a09      	ldr	r2, [pc, #36]	; (10002df8 <DAVE_MUX_Init+0x2c>)
10002dd2:	4909      	ldr	r1, [pc, #36]	; (10002df8 <DAVE_MUX_Init+0x2c>)
10002dd4:	23a8      	movs	r3, #168	; 0xa8
10002dd6:	58cb      	ldr	r3, [r1, r3]
10002dd8:	2103      	movs	r1, #3
10002dda:	4319      	orrs	r1, r3
10002ddc:	23a8      	movs	r3, #168	; 0xa8
10002dde:	50d1      	str	r1, [r2, r3]
   	 
            	         
                                                 

/*        PORT Macro definitions for IOCR_OE, IOCR_PCR & HWSEL_HW     */                                      
  WR_REG(PORT0->IOCR4, 0xb800U, PORT_IOCR_PC1_PCR_Pos, 0x14U);                /*P0.5 : PORT0_IOCR4_PC5_PCR and PORT0_IOCR4_PC5_OE */					   
10002de0:	4b06      	ldr	r3, [pc, #24]	; (10002dfc <DAVE_MUX_Init+0x30>)
10002de2:	4a06      	ldr	r2, [pc, #24]	; (10002dfc <DAVE_MUX_Init+0x30>)
10002de4:	6951      	ldr	r1, [r2, #20]
10002de6:	4a06      	ldr	r2, [pc, #24]	; (10002e00 <DAVE_MUX_Init+0x34>)
10002de8:	400a      	ands	r2, r1
10002dea:	21a0      	movs	r1, #160	; 0xa0
10002dec:	0209      	lsls	r1, r1, #8
10002dee:	430a      	orrs	r2, r1
10002df0:	615a      	str	r2, [r3, #20]
					      
   	 
            	         
                                                     
}
10002df2:	46bd      	mov	sp, r7
10002df4:	bd80      	pop	{r7, pc}
10002df6:	46c0      	nop			; (mov r8, r8)
10002df8:	48040100 	.word	0x48040100
10002dfc:	40040000 	.word	0x40040000
10002e00:	ffff47ff 	.word	0xffff47ff

10002e04 <DAVE_MUX_PreInit>:
** Description      : This is the Mux configuration                           **
**                                                                            **
*******************************************************************************/
 
void DAVE_MUX_PreInit(void)
{        
10002e04:	b580      	push	{r7, lr}
10002e06:	af00      	add	r7, sp, #0

/*        PORT Macro definitions for IOCR_OE, IOCR_PCR & HWSEL_HW     */                       
}
10002e08:	46bd      	mov	sp, r7
10002e0a:	bd80      	pop	{r7, pc}

10002e0c <CLK002_Init>:
  * @note   -
  * @param  None
  * @retval None
  */
void CLK002_Init(void)
{
10002e0c:	b580      	push	{r7, lr}
10002e0e:	af00      	add	r7, sp, #0
    /* Open the lock that protects privileged bits. */
    SCU_GENERAL->PASSWD = CLK002_DIRECT_ACCESS_ALLOW;
10002e10:	4b0a      	ldr	r3, [pc, #40]	; (10002e3c <CLK002_Init+0x30>)
10002e12:	22c0      	movs	r2, #192	; 0xc0
10002e14:	625a      	str	r2, [r3, #36]	; 0x24

    /* Loop until protection is removed. */
    while(((SCU_GENERAL->PASSWD)&SCU_GENERAL_PASSWD_PROTS_Msk))
10002e16:	46c0      	nop			; (mov r8, r8)
10002e18:	4b08      	ldr	r3, [pc, #32]	; (10002e3c <CLK002_Init+0x30>)
10002e1a:	6a5a      	ldr	r2, [r3, #36]	; 0x24
10002e1c:	2304      	movs	r3, #4
10002e1e:	4013      	ands	r3, r2
10002e20:	d1fa      	bne.n	10002e18 <CLK002_Init+0xc>
    {
	    ;
    }

    /* Update PCLK selection mux. */
    SCU_CLK->CLKCR|=(((uint32_t)CLK002_CLKCR_PCLKSEL<<\
10002e22:	4b07      	ldr	r3, [pc, #28]	; (10002e40 <CLK002_Init+0x34>)
10002e24:	4a06      	ldr	r2, [pc, #24]	; (10002e40 <CLK002_Init+0x34>)
10002e26:	6812      	ldr	r2, [r2, #0]
10002e28:	601a      	str	r2, [r3, #0]
	             (uint32_t)SCU_CLK_CLKCR_PCLKSEL_Pos)&SCU_CLK_CLKCR_PCLKSEL_Msk);

    CLK002_lDivUpdate();
10002e2a:	f000 f811 	bl	10002e50 <CLK002_lDivUpdate>

    /*Close the lock opened above. */
    SCU_GENERAL->PASSWD = CLK002_DIRECT_ACCESS_DISALLOW;
10002e2e:	4b03      	ldr	r3, [pc, #12]	; (10002e3c <CLK002_Init+0x30>)
10002e30:	22c3      	movs	r2, #195	; 0xc3
10002e32:	625a      	str	r2, [r3, #36]	; 0x24

    /* Update the clock variable */
    SystemCoreClockUpdate();
10002e34:	f7fe f96c 	bl	10001110 <SystemCoreClockUpdate>
}
10002e38:	46bd      	mov	sp, r7
10002e3a:	bd80      	pop	{r7, pc}
10002e3c:	40010000 	.word	0x40010000
10002e40:	40010300 	.word	0x40010300

10002e44 <AllowClkInitByStartup>:
*         proceeds with program  loading. Return 0 to disallow CStart from
*         performing clock tree setup.
*/

uint32_t AllowClkInitByStartup(void)
{
10002e44:	b580      	push	{r7, lr}
10002e46:	af00      	add	r7, sp, #0
    /* Return FALSE - Do not allow any initialisation by startup code. */
    return ((uint32_t)0);
10002e48:	2300      	movs	r3, #0
}
10002e4a:	1c18      	adds	r0, r3, #0
10002e4c:	46bd      	mov	sp, r7
10002e4e:	bd80      	pop	{r7, pc}

10002e50 <CLK002_lDivUpdate>:
  * @note   -
  * @param  None
  * @retval None
  */
static void CLK002_lDivUpdate(void)
{
10002e50:	b580      	push	{r7, lr}
10002e52:	b084      	sub	sp, #16
10002e54:	af00      	add	r7, sp, #0
 /*  Find out current and target value of idiv */
 uint32_t lCurrIdiv= (uint32_t) 0;      /* Current idiv. */
10002e56:	2300      	movs	r3, #0
10002e58:	60fb      	str	r3, [r7, #12]
 uint32_t lTargetidiv= (uint32_t) 0;    /* Target idiv. */
10002e5a:	2300      	movs	r3, #0
10002e5c:	60bb      	str	r3, [r7, #8]
 uint32_t lCLKCR;
 lCurrIdiv = (((SCU_CLK->CLKCR)&SCU_CLK_CLKCR_IDIV_Msk)>>SCU_CLK_CLKCR_IDIV_Pos);
10002e5e:	4b18      	ldr	r3, [pc, #96]	; (10002ec0 <CLK002_lDivUpdate+0x70>)
10002e60:	681a      	ldr	r2, [r3, #0]
10002e62:	23ff      	movs	r3, #255	; 0xff
10002e64:	021b      	lsls	r3, r3, #8
10002e66:	4013      	ands	r3, r2
10002e68:	0a1b      	lsrs	r3, r3, #8
10002e6a:	60fb      	str	r3, [r7, #12]
 lTargetidiv = CLK002_CLKCR_IDIV;
10002e6c:	2301      	movs	r3, #1
10002e6e:	60bb      	str	r3, [r7, #8]

 /* Update FDIV here, unconditionally. */

  lCLKCR = SCU_CLK->CLKCR;
10002e70:	4b13      	ldr	r3, [pc, #76]	; (10002ec0 <CLK002_lDivUpdate+0x70>)
10002e72:	681b      	ldr	r3, [r3, #0]
10002e74:	607b      	str	r3, [r7, #4]
  WR_REG(lCLKCR, SCU_CLK_CLKCR_FDIV_Msk, SCU_CLK_CLKCR_FDIV_Pos,CLK002_CLKCR_FDIV);
10002e76:	687b      	ldr	r3, [r7, #4]
10002e78:	22ff      	movs	r2, #255	; 0xff
10002e7a:	4393      	bics	r3, r2
10002e7c:	607b      	str	r3, [r7, #4]
  SCU_CLK->CLKCR = lCLKCR;
10002e7e:	4b10      	ldr	r3, [pc, #64]	; (10002ec0 <CLK002_lDivUpdate+0x70>)
10002e80:	687a      	ldr	r2, [r7, #4]
10002e82:	601a      	str	r2, [r3, #0]

     /* Delay, till frequency stable, appox. 15us. */


  WR_REG(SCU_CLK->CLKCR, SCU_CLK_CLKCR_CNTADJ_Msk, SCU_CLK_CLKCR_CNTADJ_Pos,CLK002_DELAYCNT);
10002e84:	4b0e      	ldr	r3, [pc, #56]	; (10002ec0 <CLK002_lDivUpdate+0x70>)
10002e86:	4a0e      	ldr	r2, [pc, #56]	; (10002ec0 <CLK002_lDivUpdate+0x70>)
10002e88:	6812      	ldr	r2, [r2, #0]
10002e8a:	490e      	ldr	r1, [pc, #56]	; (10002ec4 <CLK002_lDivUpdate+0x74>)
10002e8c:	430a      	orrs	r2, r1
10002e8e:	601a      	str	r2, [r3, #0]
  while (SCU_CLK->CLKCR&(SCU_CLK_CLKCR_VDDC2LOW_Msk))
10002e90:	46c0      	nop			; (mov r8, r8)
10002e92:	4b0b      	ldr	r3, [pc, #44]	; (10002ec0 <CLK002_lDivUpdate+0x70>)
10002e94:	681a      	ldr	r2, [r3, #0]
10002e96:	2380      	movs	r3, #128	; 0x80
10002e98:	05db      	lsls	r3, r3, #23
10002e9a:	4013      	ands	r3, r2
10002e9c:	d1f9      	bne.n	10002e92 <CLK002_lDivUpdate+0x42>
    ;
  }


    /* Find out current value of direction in which idiv has to update. */
 if (lCurrIdiv==lTargetidiv)
10002e9e:	68fa      	ldr	r2, [r7, #12]
10002ea0:	68bb      	ldr	r3, [r7, #8]
10002ea2:	429a      	cmp	r2, r3
10002ea4:	d008      	beq.n	10002eb8 <CLK002_lDivUpdate+0x68>
  {
   /*No change in IDIV. */
  }
 else if(lCurrIdiv < lTargetidiv)
10002ea6:	68fa      	ldr	r2, [r7, #12]
10002ea8:	68bb      	ldr	r3, [r7, #8]
10002eaa:	429a      	cmp	r2, r3
10002eac:	d202      	bcs.n	10002eb4 <CLK002_lDivUpdate+0x64>
  {
    CLK002_lFrequencyDownScaling();
10002eae:	f000 f869 	bl	10002f84 <CLK002_lFrequencyDownScaling>
10002eb2:	e001      	b.n	10002eb8 <CLK002_lDivUpdate+0x68>
  }
  else
   {
     CLK002_lFrequencyUpScaling();
10002eb4:	f000 f808 	bl	10002ec8 <CLK002_lFrequencyUpScaling>
   }

}
10002eb8:	46bd      	mov	sp, r7
10002eba:	b004      	add	sp, #16
10002ebc:	bd80      	pop	{r7, pc}
10002ebe:	46c0      	nop			; (mov r8, r8)
10002ec0:	40010300 	.word	0x40010300
10002ec4:	3ff00000 	.word	0x3ff00000

10002ec8 <CLK002_lFrequencyUpScaling>:
  * @note   -
  * @param  None
  * @retval None
  */
static void     CLK002_lFrequencyUpScaling()
{
10002ec8:	b580      	push	{r7, lr}
10002eca:	b084      	sub	sp, #16
10002ecc:	af00      	add	r7, sp, #0
  uint32_t CurrIdiv;
  uint32_t TargetIdiv;
  uint32_t lCLKCR;
  CurrIdiv = (((SCU_CLK->CLKCR)&SCU_CLK_CLKCR_IDIV_Msk)>>SCU_CLK_CLKCR_IDIV_Pos);
10002ece:	4b2a      	ldr	r3, [pc, #168]	; (10002f78 <CLK002_lFrequencyUpScaling+0xb0>)
10002ed0:	681a      	ldr	r2, [r3, #0]
10002ed2:	23ff      	movs	r3, #255	; 0xff
10002ed4:	021b      	lsls	r3, r3, #8
10002ed6:	4013      	ands	r3, r2
10002ed8:	0a1b      	lsrs	r3, r3, #8
10002eda:	60fb      	str	r3, [r7, #12]
  TargetIdiv = CLK002_CLKCR_IDIV;
10002edc:	2301      	movs	r3, #1
10002ede:	60bb      	str	r3, [r7, #8]
  while(1)
  {
    if(CurrIdiv > (TargetIdiv * 4UL))
10002ee0:	68bb      	ldr	r3, [r7, #8]
10002ee2:	009a      	lsls	r2, r3, #2
10002ee4:	68fb      	ldr	r3, [r7, #12]
10002ee6:	429a      	cmp	r2, r3
10002ee8:	d224      	bcs.n	10002f34 <CLK002_lFrequencyUpScaling+0x6c>
    {
        CurrIdiv = (CurrIdiv & 0xFFFFFFFCU) + 4U;
10002eea:	68fb      	ldr	r3, [r7, #12]
10002eec:	2203      	movs	r2, #3
10002eee:	4393      	bics	r3, r2
10002ef0:	3304      	adds	r3, #4
10002ef2:	60fb      	str	r3, [r7, #12]
        CurrIdiv  = CurrIdiv >> 2;   /* Divide by 4. */
10002ef4:	68fb      	ldr	r3, [r7, #12]
10002ef6:	089b      	lsrs	r3, r3, #2
10002ef8:	60fb      	str	r3, [r7, #12]
        /* Program interim value of IDIV. */

        lCLKCR = SCU_CLK->CLKCR;
10002efa:	4b1f      	ldr	r3, [pc, #124]	; (10002f78 <CLK002_lFrequencyUpScaling+0xb0>)
10002efc:	681b      	ldr	r3, [r3, #0]
10002efe:	607b      	str	r3, [r7, #4]
        WR_REG(lCLKCR, SCU_CLK_CLKCR_IDIV_Msk, SCU_CLK_CLKCR_IDIV_Pos,CurrIdiv);
10002f00:	68fb      	ldr	r3, [r7, #12]
10002f02:	021b      	lsls	r3, r3, #8
10002f04:	041b      	lsls	r3, r3, #16
10002f06:	0c1a      	lsrs	r2, r3, #16
10002f08:	6879      	ldr	r1, [r7, #4]
10002f0a:	4b1c      	ldr	r3, [pc, #112]	; (10002f7c <CLK002_lFrequencyUpScaling+0xb4>)
10002f0c:	400b      	ands	r3, r1
10002f0e:	4313      	orrs	r3, r2
10002f10:	607b      	str	r3, [r7, #4]
        SCU_CLK->CLKCR = lCLKCR;
10002f12:	4b19      	ldr	r3, [pc, #100]	; (10002f78 <CLK002_lFrequencyUpScaling+0xb0>)
10002f14:	687a      	ldr	r2, [r7, #4]
10002f16:	601a      	str	r2, [r3, #0]

        /* Wait till frequency stable. */
        WR_REG(SCU_CLK->CLKCR, SCU_CLK_CLKCR_CNTADJ_Msk, SCU_CLK_CLKCR_CNTADJ_Pos,CLK002_DELAYCNT);
10002f18:	4b17      	ldr	r3, [pc, #92]	; (10002f78 <CLK002_lFrequencyUpScaling+0xb0>)
10002f1a:	4a17      	ldr	r2, [pc, #92]	; (10002f78 <CLK002_lFrequencyUpScaling+0xb0>)
10002f1c:	6812      	ldr	r2, [r2, #0]
10002f1e:	4918      	ldr	r1, [pc, #96]	; (10002f80 <CLK002_lFrequencyUpScaling+0xb8>)
10002f20:	430a      	orrs	r2, r1
10002f22:	601a      	str	r2, [r3, #0]
        while (SCU_CLK->CLKCR&(SCU_CLK_CLKCR_VDDC2LOW_Msk))
10002f24:	46c0      	nop			; (mov r8, r8)
10002f26:	4b14      	ldr	r3, [pc, #80]	; (10002f78 <CLK002_lFrequencyUpScaling+0xb0>)
10002f28:	681a      	ldr	r2, [r3, #0]
10002f2a:	2380      	movs	r3, #128	; 0x80
10002f2c:	05db      	lsls	r3, r3, #23
10002f2e:	4013      	ands	r3, r2
10002f30:	d1f9      	bne.n	10002f26 <CLK002_lFrequencyUpScaling+0x5e>
10002f32:	e01c      	b.n	10002f6e <CLK002_lFrequencyUpScaling+0xa6>
        }
    }
    else
    {
        /* Program TargetIDiv into IDIV bitfield of CLKCR. */
        lCLKCR = SCU_CLK->CLKCR;
10002f34:	4b10      	ldr	r3, [pc, #64]	; (10002f78 <CLK002_lFrequencyUpScaling+0xb0>)
10002f36:	681b      	ldr	r3, [r3, #0]
10002f38:	607b      	str	r3, [r7, #4]
        WR_REG(lCLKCR, SCU_CLK_CLKCR_IDIV_Msk, SCU_CLK_CLKCR_IDIV_Pos,TargetIdiv);
10002f3a:	68bb      	ldr	r3, [r7, #8]
10002f3c:	021b      	lsls	r3, r3, #8
10002f3e:	041b      	lsls	r3, r3, #16
10002f40:	0c1a      	lsrs	r2, r3, #16
10002f42:	6879      	ldr	r1, [r7, #4]
10002f44:	4b0d      	ldr	r3, [pc, #52]	; (10002f7c <CLK002_lFrequencyUpScaling+0xb4>)
10002f46:	400b      	ands	r3, r1
10002f48:	4313      	orrs	r3, r2
10002f4a:	607b      	str	r3, [r7, #4]
        SCU_CLK->CLKCR = lCLKCR;
10002f4c:	4b0a      	ldr	r3, [pc, #40]	; (10002f78 <CLK002_lFrequencyUpScaling+0xb0>)
10002f4e:	687a      	ldr	r2, [r7, #4]
10002f50:	601a      	str	r2, [r3, #0]
        /* Wait till frequency stable. */
        WR_REG(SCU_CLK->CLKCR, SCU_CLK_CLKCR_CNTADJ_Msk, SCU_CLK_CLKCR_CNTADJ_Pos,CLK002_DELAYCNT);
10002f52:	4b09      	ldr	r3, [pc, #36]	; (10002f78 <CLK002_lFrequencyUpScaling+0xb0>)
10002f54:	4a08      	ldr	r2, [pc, #32]	; (10002f78 <CLK002_lFrequencyUpScaling+0xb0>)
10002f56:	6812      	ldr	r2, [r2, #0]
10002f58:	4909      	ldr	r1, [pc, #36]	; (10002f80 <CLK002_lFrequencyUpScaling+0xb8>)
10002f5a:	430a      	orrs	r2, r1
10002f5c:	601a      	str	r2, [r3, #0]
        while (SCU_CLK->CLKCR&(SCU_CLK_CLKCR_VDDC2LOW_Msk))
10002f5e:	46c0      	nop			; (mov r8, r8)
10002f60:	4b05      	ldr	r3, [pc, #20]	; (10002f78 <CLK002_lFrequencyUpScaling+0xb0>)
10002f62:	681a      	ldr	r2, [r3, #0]
10002f64:	2380      	movs	r3, #128	; 0x80
10002f66:	05db      	lsls	r3, r3, #23
10002f68:	4013      	ands	r3, r2
10002f6a:	d1f9      	bne.n	10002f60 <CLK002_lFrequencyUpScaling+0x98>
        {
            ;
        }
        break;
10002f6c:	e000      	b.n	10002f70 <CLK002_lFrequencyUpScaling+0xa8>
    }

  }
10002f6e:	e7b7      	b.n	10002ee0 <CLK002_lFrequencyUpScaling+0x18>

}
10002f70:	46bd      	mov	sp, r7
10002f72:	b004      	add	sp, #16
10002f74:	bd80      	pop	{r7, pc}
10002f76:	46c0      	nop			; (mov r8, r8)
10002f78:	40010300 	.word	0x40010300
10002f7c:	ffff00ff 	.word	0xffff00ff
10002f80:	3ff00000 	.word	0x3ff00000

10002f84 <CLK002_lFrequencyDownScaling>:
  * @note   -
  * @param  None
  * @retval None
  */
static void     CLK002_lFrequencyDownScaling()
{
10002f84:	b580      	push	{r7, lr}
10002f86:	b084      	sub	sp, #16
10002f88:	af00      	add	r7, sp, #0
    uint32_t CurrIdiv;
    uint32_t TargetIdiv;
    uint32_t lCLKCR;
    CurrIdiv = (((SCU_CLK->CLKCR)&SCU_CLK_CLKCR_IDIV_Msk)>>SCU_CLK_CLKCR_IDIV_Pos);
10002f8a:	4b27      	ldr	r3, [pc, #156]	; (10003028 <CLK002_lFrequencyDownScaling+0xa4>)
10002f8c:	681a      	ldr	r2, [r3, #0]
10002f8e:	23ff      	movs	r3, #255	; 0xff
10002f90:	021b      	lsls	r3, r3, #8
10002f92:	4013      	ands	r3, r2
10002f94:	0a1b      	lsrs	r3, r3, #8
10002f96:	60fb      	str	r3, [r7, #12]
    TargetIdiv = CLK002_CLKCR_IDIV;
10002f98:	2301      	movs	r3, #1
10002f9a:	60bb      	str	r3, [r7, #8]
    while(1)
    {
        if((CurrIdiv * 4UL) < TargetIdiv )
10002f9c:	68fb      	ldr	r3, [r7, #12]
10002f9e:	009a      	lsls	r2, r3, #2
10002fa0:	68bb      	ldr	r3, [r7, #8]
10002fa2:	429a      	cmp	r2, r3
10002fa4:	d21f      	bcs.n	10002fe6 <CLK002_lFrequencyDownScaling+0x62>
        {
            CurrIdiv  = CurrIdiv << 2;   /* Multiply by 4. */
10002fa6:	68fb      	ldr	r3, [r7, #12]
10002fa8:	009b      	lsls	r3, r3, #2
10002faa:	60fb      	str	r3, [r7, #12]
            /* Program interim value of IDIV */
            lCLKCR = SCU_CLK->CLKCR;
10002fac:	4b1e      	ldr	r3, [pc, #120]	; (10003028 <CLK002_lFrequencyDownScaling+0xa4>)
10002fae:	681b      	ldr	r3, [r3, #0]
10002fb0:	607b      	str	r3, [r7, #4]
            WR_REG(lCLKCR, SCU_CLK_CLKCR_IDIV_Msk, SCU_CLK_CLKCR_IDIV_Pos,CurrIdiv);
10002fb2:	68fb      	ldr	r3, [r7, #12]
10002fb4:	021b      	lsls	r3, r3, #8
10002fb6:	041b      	lsls	r3, r3, #16
10002fb8:	0c1a      	lsrs	r2, r3, #16
10002fba:	6879      	ldr	r1, [r7, #4]
10002fbc:	4b1b      	ldr	r3, [pc, #108]	; (1000302c <CLK002_lFrequencyDownScaling+0xa8>)
10002fbe:	400b      	ands	r3, r1
10002fc0:	4313      	orrs	r3, r2
10002fc2:	607b      	str	r3, [r7, #4]
            SCU_CLK->CLKCR = lCLKCR;
10002fc4:	4b18      	ldr	r3, [pc, #96]	; (10003028 <CLK002_lFrequencyDownScaling+0xa4>)
10002fc6:	687a      	ldr	r2, [r7, #4]
10002fc8:	601a      	str	r2, [r3, #0]
            /* Wait till frequency stable. */
            WR_REG(SCU_CLK->CLKCR, SCU_CLK_CLKCR_CNTADJ_Msk, SCU_CLK_CLKCR_CNTADJ_Pos,CLK002_DELAYCNT);
10002fca:	4b17      	ldr	r3, [pc, #92]	; (10003028 <CLK002_lFrequencyDownScaling+0xa4>)
10002fcc:	4a16      	ldr	r2, [pc, #88]	; (10003028 <CLK002_lFrequencyDownScaling+0xa4>)
10002fce:	6812      	ldr	r2, [r2, #0]
10002fd0:	4917      	ldr	r1, [pc, #92]	; (10003030 <CLK002_lFrequencyDownScaling+0xac>)
10002fd2:	430a      	orrs	r2, r1
10002fd4:	601a      	str	r2, [r3, #0]
            while (SCU_CLK->CLKCR&(SCU_CLK_CLKCR_VDDC2LOW_Msk))
10002fd6:	46c0      	nop			; (mov r8, r8)
10002fd8:	4b13      	ldr	r3, [pc, #76]	; (10003028 <CLK002_lFrequencyDownScaling+0xa4>)
10002fda:	681a      	ldr	r2, [r3, #0]
10002fdc:	2380      	movs	r3, #128	; 0x80
10002fde:	05db      	lsls	r3, r3, #23
10002fe0:	4013      	ands	r3, r2
10002fe2:	d1f9      	bne.n	10002fd8 <CLK002_lFrequencyDownScaling+0x54>
10002fe4:	e01c      	b.n	10003020 <CLK002_lFrequencyDownScaling+0x9c>
            }
        }
        else
        {
            /* Program TargetIDiv into IDIV bitfield of CLKCR */
            lCLKCR = SCU_CLK->CLKCR;
10002fe6:	4b10      	ldr	r3, [pc, #64]	; (10003028 <CLK002_lFrequencyDownScaling+0xa4>)
10002fe8:	681b      	ldr	r3, [r3, #0]
10002fea:	607b      	str	r3, [r7, #4]
            WR_REG(lCLKCR, SCU_CLK_CLKCR_IDIV_Msk, SCU_CLK_CLKCR_IDIV_Pos,TargetIdiv);
10002fec:	68bb      	ldr	r3, [r7, #8]
10002fee:	021b      	lsls	r3, r3, #8
10002ff0:	041b      	lsls	r3, r3, #16
10002ff2:	0c1a      	lsrs	r2, r3, #16
10002ff4:	6879      	ldr	r1, [r7, #4]
10002ff6:	4b0d      	ldr	r3, [pc, #52]	; (1000302c <CLK002_lFrequencyDownScaling+0xa8>)
10002ff8:	400b      	ands	r3, r1
10002ffa:	4313      	orrs	r3, r2
10002ffc:	607b      	str	r3, [r7, #4]
            SCU_CLK->CLKCR = lCLKCR;
10002ffe:	4b0a      	ldr	r3, [pc, #40]	; (10003028 <CLK002_lFrequencyDownScaling+0xa4>)
10003000:	687a      	ldr	r2, [r7, #4]
10003002:	601a      	str	r2, [r3, #0]
            /* Wait till frequency stable. */
           
            WR_REG(SCU_CLK->CLKCR, SCU_CLK_CLKCR_CNTADJ_Msk, SCU_CLK_CLKCR_CNTADJ_Pos,CLK002_DELAYCNT);
10003004:	4b08      	ldr	r3, [pc, #32]	; (10003028 <CLK002_lFrequencyDownScaling+0xa4>)
10003006:	4a08      	ldr	r2, [pc, #32]	; (10003028 <CLK002_lFrequencyDownScaling+0xa4>)
10003008:	6812      	ldr	r2, [r2, #0]
1000300a:	4909      	ldr	r1, [pc, #36]	; (10003030 <CLK002_lFrequencyDownScaling+0xac>)
1000300c:	430a      	orrs	r2, r1
1000300e:	601a      	str	r2, [r3, #0]
            while (SCU_CLK->CLKCR&(SCU_CLK_CLKCR_VDDC2LOW_Msk))
10003010:	46c0      	nop			; (mov r8, r8)
10003012:	4b05      	ldr	r3, [pc, #20]	; (10003028 <CLK002_lFrequencyDownScaling+0xa4>)
10003014:	681a      	ldr	r2, [r3, #0]
10003016:	2380      	movs	r3, #128	; 0x80
10003018:	05db      	lsls	r3, r3, #23
1000301a:	4013      	ands	r3, r2
1000301c:	d1f9      	bne.n	10003012 <CLK002_lFrequencyDownScaling+0x8e>
            {
                ;
            }
             break;
1000301e:	e000      	b.n	10003022 <CLK002_lFrequencyDownScaling+0x9e>
        }

	  }
10003020:	e7bc      	b.n	10002f9c <CLK002_lFrequencyDownScaling+0x18>
}
10003022:	46bd      	mov	sp, r7
10003024:	b004      	add	sp, #16
10003026:	bd80      	pop	{r7, pc}
10003028:	40010300 	.word	0x40010300
1000302c:	ffff00ff 	.word	0xffff00ff
10003030:	3ff00000 	.word	0x3ff00000

10003034 <CCU4GLOBAL_Init>:
/**
 * @cond INTERNAL_DOCS
 */

void CCU4GLOBAL_Init(void)
{
10003034:	b580      	push	{r7, lr}
10003036:	b082      	sub	sp, #8
10003038:	af00      	add	r7, sp, #0
  static uint32_t CCU4InitCalled = (uint32_t)0U;
  uint32_t Count = 0U;
1000303a:	2300      	movs	r3, #0
1000303c:	607b      	str	r3, [r7, #4]
  
  if(CCU4InitCalled == (uint32_t)0U)
1000303e:	4b0d      	ldr	r3, [pc, #52]	; (10003074 <CCU4GLOBAL_Init+0x40>)
10003040:	681b      	ldr	r3, [r3, #0]
10003042:	2b00      	cmp	r3, #0
10003044:	d112      	bne.n	1000306c <CCU4GLOBAL_Init+0x38>
  {
    /*
     * Each instance of the App brings the module out of reset and enable 
     * the prescalar clock
     */
    for (Count = 0U; Count<(uint32_t)CCU4GLOBAL_NUM_INSTANCES; Count++)
10003046:	2300      	movs	r3, #0
10003048:	607b      	str	r3, [r7, #4]
1000304a:	e009      	b.n	10003060 <CCU4GLOBAL_Init+0x2c>
    {
  	  CCU4Global_lInit(CCU4Global_HandleArray[Count]);
1000304c:	4b0a      	ldr	r3, [pc, #40]	; (10003078 <CCU4GLOBAL_Init+0x44>)
1000304e:	687a      	ldr	r2, [r7, #4]
10003050:	0092      	lsls	r2, r2, #2
10003052:	58d3      	ldr	r3, [r2, r3]
10003054:	1c18      	adds	r0, r3, #0
10003056:	f000 f811 	bl	1000307c <CCU4Global_lInit>
  {
    /*
     * Each instance of the App brings the module out of reset and enable 
     * the prescalar clock
     */
    for (Count = 0U; Count<(uint32_t)CCU4GLOBAL_NUM_INSTANCES; Count++)
1000305a:	687b      	ldr	r3, [r7, #4]
1000305c:	3301      	adds	r3, #1
1000305e:	607b      	str	r3, [r7, #4]
10003060:	687b      	ldr	r3, [r7, #4]
10003062:	2b00      	cmp	r3, #0
10003064:	d0f2      	beq.n	1000304c <CCU4GLOBAL_Init+0x18>
    {
  	  CCU4Global_lInit(CCU4Global_HandleArray[Count]);
    }

    CCU4InitCalled = (uint32_t)1;
10003066:	4b03      	ldr	r3, [pc, #12]	; (10003074 <CCU4GLOBAL_Init+0x40>)
10003068:	2201      	movs	r2, #1
1000306a:	601a      	str	r2, [r3, #0]
  }
}
1000306c:	46bd      	mov	sp, r7
1000306e:	b002      	add	sp, #8
10003070:	bd80      	pop	{r7, pc}
10003072:	46c0      	nop			; (mov r8, r8)
10003074:	20000934 	.word	0x20000934
10003078:	20000944 	.word	0x20000944

1000307c <CCU4Global_lInit>:

static void CCU4Global_lInit(const CCU4Global_HandleType * Handle)
{
1000307c:	b590      	push	{r4, r7, lr}
1000307e:	b083      	sub	sp, #12
10003080:	af00      	add	r7, sp, #0
10003082:	6078      	str	r0, [r7, #4]
    if( Handle->KernelNumber <= 2 )
10003084:	687b      	ldr	r3, [r7, #4]
10003086:	685b      	ldr	r3, [r3, #4]
10003088:	2b02      	cmp	r3, #2
1000308a:	d823      	bhi.n	100030d4 <CCU4Global_lInit+0x58>
	{
		/* Disables the gating for CCU4 kernel */      
		/*This is applicable for XMC4400,XMC4200 and XMC1xxx Devices*/
		#if (UC_FAMILY == XMC1 )
			if (!((uint32_t)SCU_CLK->CGATCLR0 & Handle->ClockGating))
1000308c:	4b17      	ldr	r3, [pc, #92]	; (100030ec <CCU4Global_lInit+0x70>)
1000308e:	691a      	ldr	r2, [r3, #16]
10003090:	687b      	ldr	r3, [r7, #4]
10003092:	689b      	ldr	r3, [r3, #8]
10003094:	4013      	ands	r3, r2
10003096:	d11d      	bne.n	100030d4 <CCU4Global_lInit+0x58>
			{ 
				SCU_GENERAL->PASSWD = 0x000000C0UL;
10003098:	4b15      	ldr	r3, [pc, #84]	; (100030f0 <CCU4Global_lInit+0x74>)
1000309a:	22c0      	movs	r2, #192	; 0xc0
1000309c:	625a      	str	r2, [r3, #36]	; 0x24
				WR_REG(SCU_CLK->CLKCR, SCU_CLK_CLKCR_CNTADJ_Msk, 
1000309e:	4b13      	ldr	r3, [pc, #76]	; (100030ec <CCU4Global_lInit+0x70>)
100030a0:	4a12      	ldr	r2, [pc, #72]	; (100030ec <CCU4Global_lInit+0x70>)
100030a2:	6812      	ldr	r2, [r2, #0]
100030a4:	4913      	ldr	r1, [pc, #76]	; (100030f4 <CCU4Global_lInit+0x78>)
100030a6:	430a      	orrs	r2, r1
100030a8:	601a      	str	r2, [r3, #0]
					   SCU_CLK_CLKCR_CNTADJ_Pos,CCU4GLOBAL_DELAYCNT);
				
				SET_BIT(SCU_CLK->CGATCLR0, Handle->ClockGating);
100030aa:	4b10      	ldr	r3, [pc, #64]	; (100030ec <CCU4Global_lInit+0x70>)
100030ac:	4a0f      	ldr	r2, [pc, #60]	; (100030ec <CCU4Global_lInit+0x70>)
100030ae:	6911      	ldr	r1, [r2, #16]
100030b0:	687a      	ldr	r2, [r7, #4]
100030b2:	6892      	ldr	r2, [r2, #8]
100030b4:	2001      	movs	r0, #1
100030b6:	1c04      	adds	r4, r0, #0
100030b8:	4094      	lsls	r4, r2
100030ba:	1c22      	adds	r2, r4, #0
100030bc:	430a      	orrs	r2, r1
100030be:	611a      	str	r2, [r3, #16]
				while ((uint32_t)SCU_CLK->CLKCR & 
100030c0:	46c0      	nop			; (mov r8, r8)
100030c2:	4b0a      	ldr	r3, [pc, #40]	; (100030ec <CCU4Global_lInit+0x70>)
100030c4:	681a      	ldr	r2, [r3, #0]
100030c6:	2380      	movs	r3, #128	; 0x80
100030c8:	05db      	lsls	r3, r3, #23
100030ca:	4013      	ands	r3, r2
100030cc:	d1f9      	bne.n	100030c2 <CCU4Global_lInit+0x46>
					   (uint32_t)SCU_CLK_CLKCR_VDDC2LOW_Msk)
				{
					;
				}
				SCU_GENERAL->PASSWD = 0x000000C3UL;
100030ce:	4b08      	ldr	r3, [pc, #32]	; (100030f0 <CCU4Global_lInit+0x74>)
100030d0:	22c3      	movs	r2, #195	; 0xc3
100030d2:	625a      	str	r2, [r3, #36]	; 0x24
		RESET001_DeassertReset(Handle->PeripheralReset);
	#endif    

		
    /* Sets Run bit of the Prescalar */
    SET_BIT(Handle->CC4yKernRegsPtr->GIDLC,CCU4_GIDLC_SPRB_Pos);
100030d4:	687b      	ldr	r3, [r7, #4]
100030d6:	681b      	ldr	r3, [r3, #0]
100030d8:	687a      	ldr	r2, [r7, #4]
100030da:	6812      	ldr	r2, [r2, #0]
100030dc:	68d2      	ldr	r2, [r2, #12]
100030de:	2180      	movs	r1, #128	; 0x80
100030e0:	0049      	lsls	r1, r1, #1
100030e2:	430a      	orrs	r2, r1
100030e4:	60da      	str	r2, [r3, #12]

}
100030e6:	46bd      	mov	sp, r7
100030e8:	b003      	add	sp, #12
100030ea:	bd90      	pop	{r4, r7, pc}
100030ec:	40010300 	.word	0x40010300
100030f0:	40010000 	.word	0x40010000
100030f4:	3ff00000 	.word	0x3ff00000

100030f8 <__aeabi_uidiv>:
100030f8:	2900      	cmp	r1, #0
100030fa:	d034      	beq.n	10003166 <.udivsi3_skip_div0_test+0x6a>

100030fc <.udivsi3_skip_div0_test>:
100030fc:	2301      	movs	r3, #1
100030fe:	2200      	movs	r2, #0
10003100:	b410      	push	{r4}
10003102:	4288      	cmp	r0, r1
10003104:	d32c      	bcc.n	10003160 <.udivsi3_skip_div0_test+0x64>
10003106:	2401      	movs	r4, #1
10003108:	0724      	lsls	r4, r4, #28
1000310a:	42a1      	cmp	r1, r4
1000310c:	d204      	bcs.n	10003118 <.udivsi3_skip_div0_test+0x1c>
1000310e:	4281      	cmp	r1, r0
10003110:	d202      	bcs.n	10003118 <.udivsi3_skip_div0_test+0x1c>
10003112:	0109      	lsls	r1, r1, #4
10003114:	011b      	lsls	r3, r3, #4
10003116:	e7f8      	b.n	1000310a <.udivsi3_skip_div0_test+0xe>
10003118:	00e4      	lsls	r4, r4, #3
1000311a:	42a1      	cmp	r1, r4
1000311c:	d204      	bcs.n	10003128 <.udivsi3_skip_div0_test+0x2c>
1000311e:	4281      	cmp	r1, r0
10003120:	d202      	bcs.n	10003128 <.udivsi3_skip_div0_test+0x2c>
10003122:	0049      	lsls	r1, r1, #1
10003124:	005b      	lsls	r3, r3, #1
10003126:	e7f8      	b.n	1000311a <.udivsi3_skip_div0_test+0x1e>
10003128:	4288      	cmp	r0, r1
1000312a:	d301      	bcc.n	10003130 <.udivsi3_skip_div0_test+0x34>
1000312c:	1a40      	subs	r0, r0, r1
1000312e:	431a      	orrs	r2, r3
10003130:	084c      	lsrs	r4, r1, #1
10003132:	42a0      	cmp	r0, r4
10003134:	d302      	bcc.n	1000313c <.udivsi3_skip_div0_test+0x40>
10003136:	1b00      	subs	r0, r0, r4
10003138:	085c      	lsrs	r4, r3, #1
1000313a:	4322      	orrs	r2, r4
1000313c:	088c      	lsrs	r4, r1, #2
1000313e:	42a0      	cmp	r0, r4
10003140:	d302      	bcc.n	10003148 <.udivsi3_skip_div0_test+0x4c>
10003142:	1b00      	subs	r0, r0, r4
10003144:	089c      	lsrs	r4, r3, #2
10003146:	4322      	orrs	r2, r4
10003148:	08cc      	lsrs	r4, r1, #3
1000314a:	42a0      	cmp	r0, r4
1000314c:	d302      	bcc.n	10003154 <.udivsi3_skip_div0_test+0x58>
1000314e:	1b00      	subs	r0, r0, r4
10003150:	08dc      	lsrs	r4, r3, #3
10003152:	4322      	orrs	r2, r4
10003154:	2800      	cmp	r0, #0
10003156:	d003      	beq.n	10003160 <.udivsi3_skip_div0_test+0x64>
10003158:	091b      	lsrs	r3, r3, #4
1000315a:	d001      	beq.n	10003160 <.udivsi3_skip_div0_test+0x64>
1000315c:	0909      	lsrs	r1, r1, #4
1000315e:	e7e3      	b.n	10003128 <.udivsi3_skip_div0_test+0x2c>
10003160:	1c10      	adds	r0, r2, #0
10003162:	bc10      	pop	{r4}
10003164:	4770      	bx	lr
10003166:	2800      	cmp	r0, #0
10003168:	d001      	beq.n	1000316e <.udivsi3_skip_div0_test+0x72>
1000316a:	2000      	movs	r0, #0
1000316c:	43c0      	mvns	r0, r0
1000316e:	b407      	push	{r0, r1, r2}
10003170:	4802      	ldr	r0, [pc, #8]	; (1000317c <.udivsi3_skip_div0_test+0x80>)
10003172:	a102      	add	r1, pc, #8	; (adr r1, 1000317c <.udivsi3_skip_div0_test+0x80>)
10003174:	1840      	adds	r0, r0, r1
10003176:	9002      	str	r0, [sp, #8]
10003178:	bd03      	pop	{r0, r1, pc}
1000317a:	46c0      	nop			; (mov r8, r8)
1000317c:	000000d9 	.word	0x000000d9

10003180 <__aeabi_uidivmod>:
10003180:	2900      	cmp	r1, #0
10003182:	d0f0      	beq.n	10003166 <.udivsi3_skip_div0_test+0x6a>
10003184:	b503      	push	{r0, r1, lr}
10003186:	f7ff ffb9 	bl	100030fc <.udivsi3_skip_div0_test>
1000318a:	bc0e      	pop	{r1, r2, r3}
1000318c:	4342      	muls	r2, r0
1000318e:	1a89      	subs	r1, r1, r2
10003190:	4718      	bx	r3
10003192:	46c0      	nop			; (mov r8, r8)

10003194 <__aeabi_idiv>:
10003194:	2900      	cmp	r1, #0
10003196:	d041      	beq.n	1000321c <.divsi3_skip_div0_test+0x84>

10003198 <.divsi3_skip_div0_test>:
10003198:	b410      	push	{r4}
1000319a:	1c04      	adds	r4, r0, #0
1000319c:	404c      	eors	r4, r1
1000319e:	46a4      	mov	ip, r4
100031a0:	2301      	movs	r3, #1
100031a2:	2200      	movs	r2, #0
100031a4:	2900      	cmp	r1, #0
100031a6:	d500      	bpl.n	100031aa <.divsi3_skip_div0_test+0x12>
100031a8:	4249      	negs	r1, r1
100031aa:	2800      	cmp	r0, #0
100031ac:	d500      	bpl.n	100031b0 <.divsi3_skip_div0_test+0x18>
100031ae:	4240      	negs	r0, r0
100031b0:	4288      	cmp	r0, r1
100031b2:	d32c      	bcc.n	1000320e <.divsi3_skip_div0_test+0x76>
100031b4:	2401      	movs	r4, #1
100031b6:	0724      	lsls	r4, r4, #28
100031b8:	42a1      	cmp	r1, r4
100031ba:	d204      	bcs.n	100031c6 <.divsi3_skip_div0_test+0x2e>
100031bc:	4281      	cmp	r1, r0
100031be:	d202      	bcs.n	100031c6 <.divsi3_skip_div0_test+0x2e>
100031c0:	0109      	lsls	r1, r1, #4
100031c2:	011b      	lsls	r3, r3, #4
100031c4:	e7f8      	b.n	100031b8 <.divsi3_skip_div0_test+0x20>
100031c6:	00e4      	lsls	r4, r4, #3
100031c8:	42a1      	cmp	r1, r4
100031ca:	d204      	bcs.n	100031d6 <.divsi3_skip_div0_test+0x3e>
100031cc:	4281      	cmp	r1, r0
100031ce:	d202      	bcs.n	100031d6 <.divsi3_skip_div0_test+0x3e>
100031d0:	0049      	lsls	r1, r1, #1
100031d2:	005b      	lsls	r3, r3, #1
100031d4:	e7f8      	b.n	100031c8 <.divsi3_skip_div0_test+0x30>
100031d6:	4288      	cmp	r0, r1
100031d8:	d301      	bcc.n	100031de <.divsi3_skip_div0_test+0x46>
100031da:	1a40      	subs	r0, r0, r1
100031dc:	431a      	orrs	r2, r3
100031de:	084c      	lsrs	r4, r1, #1
100031e0:	42a0      	cmp	r0, r4
100031e2:	d302      	bcc.n	100031ea <.divsi3_skip_div0_test+0x52>
100031e4:	1b00      	subs	r0, r0, r4
100031e6:	085c      	lsrs	r4, r3, #1
100031e8:	4322      	orrs	r2, r4
100031ea:	088c      	lsrs	r4, r1, #2
100031ec:	42a0      	cmp	r0, r4
100031ee:	d302      	bcc.n	100031f6 <.divsi3_skip_div0_test+0x5e>
100031f0:	1b00      	subs	r0, r0, r4
100031f2:	089c      	lsrs	r4, r3, #2
100031f4:	4322      	orrs	r2, r4
100031f6:	08cc      	lsrs	r4, r1, #3
100031f8:	42a0      	cmp	r0, r4
100031fa:	d302      	bcc.n	10003202 <.divsi3_skip_div0_test+0x6a>
100031fc:	1b00      	subs	r0, r0, r4
100031fe:	08dc      	lsrs	r4, r3, #3
10003200:	4322      	orrs	r2, r4
10003202:	2800      	cmp	r0, #0
10003204:	d003      	beq.n	1000320e <.divsi3_skip_div0_test+0x76>
10003206:	091b      	lsrs	r3, r3, #4
10003208:	d001      	beq.n	1000320e <.divsi3_skip_div0_test+0x76>
1000320a:	0909      	lsrs	r1, r1, #4
1000320c:	e7e3      	b.n	100031d6 <.divsi3_skip_div0_test+0x3e>
1000320e:	1c10      	adds	r0, r2, #0
10003210:	4664      	mov	r4, ip
10003212:	2c00      	cmp	r4, #0
10003214:	d500      	bpl.n	10003218 <.divsi3_skip_div0_test+0x80>
10003216:	4240      	negs	r0, r0
10003218:	bc10      	pop	{r4}
1000321a:	4770      	bx	lr
1000321c:	2800      	cmp	r0, #0
1000321e:	d006      	beq.n	1000322e <.divsi3_skip_div0_test+0x96>
10003220:	db03      	blt.n	1000322a <.divsi3_skip_div0_test+0x92>
10003222:	2000      	movs	r0, #0
10003224:	43c0      	mvns	r0, r0
10003226:	0840      	lsrs	r0, r0, #1
10003228:	e001      	b.n	1000322e <.divsi3_skip_div0_test+0x96>
1000322a:	2080      	movs	r0, #128	; 0x80
1000322c:	0600      	lsls	r0, r0, #24
1000322e:	b407      	push	{r0, r1, r2}
10003230:	4802      	ldr	r0, [pc, #8]	; (1000323c <.divsi3_skip_div0_test+0xa4>)
10003232:	a102      	add	r1, pc, #8	; (adr r1, 1000323c <.divsi3_skip_div0_test+0xa4>)
10003234:	1840      	adds	r0, r0, r1
10003236:	9002      	str	r0, [sp, #8]
10003238:	bd03      	pop	{r0, r1, pc}
1000323a:	46c0      	nop			; (mov r8, r8)
1000323c:	00000019 	.word	0x00000019

10003240 <__aeabi_idivmod>:
10003240:	2900      	cmp	r1, #0
10003242:	d0eb      	beq.n	1000321c <.divsi3_skip_div0_test+0x84>
10003244:	b503      	push	{r0, r1, lr}
10003246:	f7ff ffa7 	bl	10003198 <.divsi3_skip_div0_test>
1000324a:	bc0e      	pop	{r1, r2, r3}
1000324c:	4342      	muls	r2, r0
1000324e:	1a89      	subs	r1, r1, r2
10003250:	4718      	bx	r3
10003252:	46c0      	nop			; (mov r8, r8)

10003254 <__aeabi_idiv0>:
10003254:	4770      	bx	lr
10003256:	46c0      	nop			; (mov r8, r8)

10003258 <__aeabi_cfrcmple>:
10003258:	4684      	mov	ip, r0
1000325a:	1c08      	adds	r0, r1, #0
1000325c:	4661      	mov	r1, ip
1000325e:	e7ff      	b.n	10003260 <__aeabi_cfcmpeq>

10003260 <__aeabi_cfcmpeq>:
10003260:	b51f      	push	{r0, r1, r2, r3, r4, lr}
10003262:	f000 f9f5 	bl	10003650 <__lesf2>
10003266:	2800      	cmp	r0, #0
10003268:	d401      	bmi.n	1000326e <__aeabi_cfcmpeq+0xe>
1000326a:	2100      	movs	r1, #0
1000326c:	42c8      	cmn	r0, r1
1000326e:	bd1f      	pop	{r0, r1, r2, r3, r4, pc}

10003270 <__aeabi_fcmpeq>:
10003270:	b510      	push	{r4, lr}
10003272:	f000 f97d 	bl	10003570 <__eqsf2>
10003276:	4240      	negs	r0, r0
10003278:	3001      	adds	r0, #1
1000327a:	bd10      	pop	{r4, pc}

1000327c <__aeabi_fcmplt>:
1000327c:	b510      	push	{r4, lr}
1000327e:	f000 f9e7 	bl	10003650 <__lesf2>
10003282:	2800      	cmp	r0, #0
10003284:	db01      	blt.n	1000328a <__aeabi_fcmplt+0xe>
10003286:	2000      	movs	r0, #0
10003288:	bd10      	pop	{r4, pc}
1000328a:	2001      	movs	r0, #1
1000328c:	bd10      	pop	{r4, pc}
1000328e:	46c0      	nop			; (mov r8, r8)

10003290 <__aeabi_fcmple>:
10003290:	b510      	push	{r4, lr}
10003292:	f000 f9dd 	bl	10003650 <__lesf2>
10003296:	2800      	cmp	r0, #0
10003298:	dd01      	ble.n	1000329e <__aeabi_fcmple+0xe>
1000329a:	2000      	movs	r0, #0
1000329c:	bd10      	pop	{r4, pc}
1000329e:	2001      	movs	r0, #1
100032a0:	bd10      	pop	{r4, pc}
100032a2:	46c0      	nop			; (mov r8, r8)

100032a4 <__aeabi_fcmpgt>:
100032a4:	b510      	push	{r4, lr}
100032a6:	f000 f98b 	bl	100035c0 <__gesf2>
100032aa:	2800      	cmp	r0, #0
100032ac:	dc01      	bgt.n	100032b2 <__aeabi_fcmpgt+0xe>
100032ae:	2000      	movs	r0, #0
100032b0:	bd10      	pop	{r4, pc}
100032b2:	2001      	movs	r0, #1
100032b4:	bd10      	pop	{r4, pc}
100032b6:	46c0      	nop			; (mov r8, r8)

100032b8 <__aeabi_fcmpge>:
100032b8:	b510      	push	{r4, lr}
100032ba:	f000 f981 	bl	100035c0 <__gesf2>
100032be:	2800      	cmp	r0, #0
100032c0:	da01      	bge.n	100032c6 <__aeabi_fcmpge+0xe>
100032c2:	2000      	movs	r0, #0
100032c4:	bd10      	pop	{r4, pc}
100032c6:	2001      	movs	r0, #1
100032c8:	bd10      	pop	{r4, pc}
100032ca:	46c0      	nop			; (mov r8, r8)

100032cc <__aeabi_f2uiz>:
100032cc:	219e      	movs	r1, #158	; 0x9e
100032ce:	b510      	push	{r4, lr}
100032d0:	05c9      	lsls	r1, r1, #23
100032d2:	1c04      	adds	r4, r0, #0
100032d4:	f7ff fff0 	bl	100032b8 <__aeabi_fcmpge>
100032d8:	2800      	cmp	r0, #0
100032da:	d103      	bne.n	100032e4 <__aeabi_f2uiz+0x18>
100032dc:	1c20      	adds	r0, r4, #0
100032de:	f000 fd09 	bl	10003cf4 <__aeabi_f2iz>
100032e2:	bd10      	pop	{r4, pc}
100032e4:	229e      	movs	r2, #158	; 0x9e
100032e6:	1c20      	adds	r0, r4, #0
100032e8:	05d1      	lsls	r1, r2, #23
100032ea:	f000 fb29 	bl	10003940 <__aeabi_fsub>
100032ee:	f000 fd01 	bl	10003cf4 <__aeabi_f2iz>
100032f2:	2380      	movs	r3, #128	; 0x80
100032f4:	061c      	lsls	r4, r3, #24
100032f6:	1900      	adds	r0, r0, r4
100032f8:	e7f3      	b.n	100032e2 <__aeabi_f2uiz+0x16>
100032fa:	46c0      	nop			; (mov r8, r8)

100032fc <__aeabi_fdiv>:
100032fc:	b5f0      	push	{r4, r5, r6, r7, lr}
100032fe:	465f      	mov	r7, fp
10003300:	4656      	mov	r6, sl
10003302:	464d      	mov	r5, r9
10003304:	4644      	mov	r4, r8
10003306:	b4f0      	push	{r4, r5, r6, r7}
10003308:	0245      	lsls	r5, r0, #9
1000330a:	0044      	lsls	r4, r0, #1
1000330c:	b083      	sub	sp, #12
1000330e:	1c0e      	adds	r6, r1, #0
10003310:	0a6d      	lsrs	r5, r5, #9
10003312:	0e24      	lsrs	r4, r4, #24
10003314:	0fc7      	lsrs	r7, r0, #31
10003316:	2c00      	cmp	r4, #0
10003318:	d107      	bne.n	1000332a <__aeabi_fdiv+0x2e>
1000331a:	2d00      	cmp	r5, #0
1000331c:	d000      	beq.n	10003320 <__aeabi_fdiv+0x24>
1000331e:	e091      	b.n	10003444 <__aeabi_fdiv+0x148>
10003320:	2104      	movs	r1, #4
10003322:	2201      	movs	r2, #1
10003324:	4688      	mov	r8, r1
10003326:	4692      	mov	sl, r2
10003328:	e009      	b.n	1000333e <__aeabi_fdiv+0x42>
1000332a:	2cff      	cmp	r4, #255	; 0xff
1000332c:	d055      	beq.n	100033da <__aeabi_fdiv+0xde>
1000332e:	2380      	movs	r3, #128	; 0x80
10003330:	0418      	lsls	r0, r3, #16
10003332:	2100      	movs	r1, #0
10003334:	4305      	orrs	r5, r0
10003336:	00ed      	lsls	r5, r5, #3
10003338:	3c7f      	subs	r4, #127	; 0x7f
1000333a:	4688      	mov	r8, r1
1000333c:	468a      	mov	sl, r1
1000333e:	1c33      	adds	r3, r6, #0
10003340:	0058      	lsls	r0, r3, #1
10003342:	0276      	lsls	r6, r6, #9
10003344:	0fd9      	lsrs	r1, r3, #31
10003346:	0a76      	lsrs	r6, r6, #9
10003348:	0e00      	lsrs	r0, r0, #24
1000334a:	468b      	mov	fp, r1
1000334c:	d14c      	bne.n	100033e8 <__aeabi_fdiv+0xec>
1000334e:	2201      	movs	r2, #1
10003350:	4694      	mov	ip, r2
10003352:	2e00      	cmp	r6, #0
10003354:	d000      	beq.n	10003358 <__aeabi_fdiv+0x5c>
10003356:	e081      	b.n	1000345c <__aeabi_fdiv+0x160>
10003358:	465b      	mov	r3, fp
1000335a:	407b      	eors	r3, r7
1000335c:	4662      	mov	r2, ip
1000335e:	4641      	mov	r1, r8
10003360:	9301      	str	r3, [sp, #4]
10003362:	430a      	orrs	r2, r1
10003364:	2a0f      	cmp	r2, #15
10003366:	d950      	bls.n	1000340a <__aeabi_fdiv+0x10e>
10003368:	1a20      	subs	r0, r4, r0
1000336a:	0169      	lsls	r1, r5, #5
1000336c:	4681      	mov	r9, r0
1000336e:	0175      	lsls	r5, r6, #5
10003370:	42a9      	cmp	r1, r5
10003372:	d300      	bcc.n	10003376 <__aeabi_fdiv+0x7a>
10003374:	e0b3      	b.n	100034de <__aeabi_fdiv+0x1e2>
10003376:	2201      	movs	r2, #1
10003378:	4253      	negs	r3, r2
1000337a:	4499      	add	r9, r3
1000337c:	241b      	movs	r4, #27
1000337e:	2600      	movs	r6, #0
10003380:	2701      	movs	r7, #1
10003382:	1e62      	subs	r2, r4, #1
10003384:	1c38      	adds	r0, r7, #0
10003386:	4010      	ands	r0, r2
10003388:	004b      	lsls	r3, r1, #1
1000338a:	0076      	lsls	r6, r6, #1
1000338c:	2900      	cmp	r1, #0
1000338e:	da00      	bge.n	10003392 <__aeabi_fdiv+0x96>
10003390:	e0a9      	b.n	100034e6 <__aeabi_fdiv+0x1ea>
10003392:	429d      	cmp	r5, r3
10003394:	d800      	bhi.n	10003398 <__aeabi_fdiv+0x9c>
10003396:	e0a6      	b.n	100034e6 <__aeabi_fdiv+0x1ea>
10003398:	3c01      	subs	r4, #1
1000339a:	2c00      	cmp	r4, #0
1000339c:	dc00      	bgt.n	100033a0 <__aeabi_fdiv+0xa4>
1000339e:	e0ab      	b.n	100034f8 <__aeabi_fdiv+0x1fc>
100033a0:	2800      	cmp	r0, #0
100033a2:	d00c      	beq.n	100033be <__aeabi_fdiv+0xc2>
100033a4:	1c19      	adds	r1, r3, #0
100033a6:	0076      	lsls	r6, r6, #1
100033a8:	005b      	lsls	r3, r3, #1
100033aa:	2900      	cmp	r1, #0
100033ac:	db01      	blt.n	100033b2 <__aeabi_fdiv+0xb6>
100033ae:	429d      	cmp	r5, r3
100033b0:	d801      	bhi.n	100033b6 <__aeabi_fdiv+0xba>
100033b2:	1b5b      	subs	r3, r3, r5
100033b4:	433e      	orrs	r6, r7
100033b6:	3c01      	subs	r4, #1
100033b8:	2c00      	cmp	r4, #0
100033ba:	dc00      	bgt.n	100033be <__aeabi_fdiv+0xc2>
100033bc:	e09c      	b.n	100034f8 <__aeabi_fdiv+0x1fc>
100033be:	0059      	lsls	r1, r3, #1
100033c0:	0072      	lsls	r2, r6, #1
100033c2:	2b00      	cmp	r3, #0
100033c4:	db01      	blt.n	100033ca <__aeabi_fdiv+0xce>
100033c6:	428d      	cmp	r5, r1
100033c8:	d801      	bhi.n	100033ce <__aeabi_fdiv+0xd2>
100033ca:	1b49      	subs	r1, r1, r5
100033cc:	433a      	orrs	r2, r7
100033ce:	3c01      	subs	r4, #1
100033d0:	004b      	lsls	r3, r1, #1
100033d2:	0056      	lsls	r6, r2, #1
100033d4:	2900      	cmp	r1, #0
100033d6:	daea      	bge.n	100033ae <__aeabi_fdiv+0xb2>
100033d8:	e7eb      	b.n	100033b2 <__aeabi_fdiv+0xb6>
100033da:	2d00      	cmp	r5, #0
100033dc:	d12d      	bne.n	1000343a <__aeabi_fdiv+0x13e>
100033de:	2008      	movs	r0, #8
100033e0:	2102      	movs	r1, #2
100033e2:	4680      	mov	r8, r0
100033e4:	468a      	mov	sl, r1
100033e6:	e7aa      	b.n	1000333e <__aeabi_fdiv+0x42>
100033e8:	28ff      	cmp	r0, #255	; 0xff
100033ea:	d020      	beq.n	1000342e <__aeabi_fdiv+0x132>
100033ec:	2280      	movs	r2, #128	; 0x80
100033ee:	0413      	lsls	r3, r2, #16
100033f0:	2100      	movs	r1, #0
100033f2:	431e      	orrs	r6, r3
100033f4:	468c      	mov	ip, r1
100033f6:	465b      	mov	r3, fp
100033f8:	407b      	eors	r3, r7
100033fa:	4662      	mov	r2, ip
100033fc:	4641      	mov	r1, r8
100033fe:	00f6      	lsls	r6, r6, #3
10003400:	387f      	subs	r0, #127	; 0x7f
10003402:	9301      	str	r3, [sp, #4]
10003404:	430a      	orrs	r2, r1
10003406:	2a0f      	cmp	r2, #15
10003408:	d8ae      	bhi.n	10003368 <__aeabi_fdiv+0x6c>
1000340a:	4956      	ldr	r1, [pc, #344]	; (10003564 <__aeabi_fdiv+0x268>)
1000340c:	0092      	lsls	r2, r2, #2
1000340e:	588a      	ldr	r2, [r1, r2]
10003410:	4697      	mov	pc, r2
10003412:	9b01      	ldr	r3, [sp, #4]
10003414:	26ff      	movs	r6, #255	; 0xff
10003416:	2500      	movs	r5, #0
10003418:	05f0      	lsls	r0, r6, #23
1000341a:	4328      	orrs	r0, r5
1000341c:	07de      	lsls	r6, r3, #31
1000341e:	4330      	orrs	r0, r6
10003420:	b003      	add	sp, #12
10003422:	bc3c      	pop	{r2, r3, r4, r5}
10003424:	4690      	mov	r8, r2
10003426:	4699      	mov	r9, r3
10003428:	46a2      	mov	sl, r4
1000342a:	46ab      	mov	fp, r5
1000342c:	bdf0      	pop	{r4, r5, r6, r7, pc}
1000342e:	1c33      	adds	r3, r6, #0
10003430:	1e5a      	subs	r2, r3, #1
10003432:	4193      	sbcs	r3, r2
10003434:	3302      	adds	r3, #2
10003436:	469c      	mov	ip, r3
10003438:	e78e      	b.n	10003358 <__aeabi_fdiv+0x5c>
1000343a:	220c      	movs	r2, #12
1000343c:	2303      	movs	r3, #3
1000343e:	4690      	mov	r8, r2
10003440:	469a      	mov	sl, r3
10003442:	e77c      	b.n	1000333e <__aeabi_fdiv+0x42>
10003444:	1c28      	adds	r0, r5, #0
10003446:	f000 fcc9 	bl	10003ddc <__clzsi2>
1000344a:	2276      	movs	r2, #118	; 0x76
1000344c:	1f44      	subs	r4, r0, #5
1000344e:	4253      	negs	r3, r2
10003450:	40a5      	lsls	r5, r4
10003452:	1a1c      	subs	r4, r3, r0
10003454:	2000      	movs	r0, #0
10003456:	4680      	mov	r8, r0
10003458:	4682      	mov	sl, r0
1000345a:	e770      	b.n	1000333e <__aeabi_fdiv+0x42>
1000345c:	1c30      	adds	r0, r6, #0
1000345e:	f000 fcbd 	bl	10003ddc <__clzsi2>
10003462:	2376      	movs	r3, #118	; 0x76
10003464:	1f41      	subs	r1, r0, #5
10003466:	408e      	lsls	r6, r1
10003468:	425a      	negs	r2, r3
1000346a:	2100      	movs	r1, #0
1000346c:	1a10      	subs	r0, r2, r0
1000346e:	468c      	mov	ip, r1
10003470:	e772      	b.n	10003358 <__aeabi_fdiv+0x5c>
10003472:	2300      	movs	r3, #0
10003474:	4d3c      	ldr	r5, [pc, #240]	; (10003568 <__aeabi_fdiv+0x26c>)
10003476:	26ff      	movs	r6, #255	; 0xff
10003478:	e7ce      	b.n	10003418 <__aeabi_fdiv+0x11c>
1000347a:	465f      	mov	r7, fp
1000347c:	1c35      	adds	r5, r6, #0
1000347e:	9701      	str	r7, [sp, #4]
10003480:	4663      	mov	r3, ip
10003482:	2b02      	cmp	r3, #2
10003484:	d0c5      	beq.n	10003412 <__aeabi_fdiv+0x116>
10003486:	2b03      	cmp	r3, #3
10003488:	d063      	beq.n	10003552 <__aeabi_fdiv+0x256>
1000348a:	2b01      	cmp	r3, #1
1000348c:	d043      	beq.n	10003516 <__aeabi_fdiv+0x21a>
1000348e:	4649      	mov	r1, r9
10003490:	317f      	adds	r1, #127	; 0x7f
10003492:	2900      	cmp	r1, #0
10003494:	dd35      	ble.n	10003502 <__aeabi_fdiv+0x206>
10003496:	270f      	movs	r7, #15
10003498:	402f      	ands	r7, r5
1000349a:	2f04      	cmp	r7, #4
1000349c:	d000      	beq.n	100034a0 <__aeabi_fdiv+0x1a4>
1000349e:	3504      	adds	r5, #4
100034a0:	012b      	lsls	r3, r5, #4
100034a2:	d503      	bpl.n	100034ac <__aeabi_fdiv+0x1b0>
100034a4:	4a31      	ldr	r2, [pc, #196]	; (1000356c <__aeabi_fdiv+0x270>)
100034a6:	4649      	mov	r1, r9
100034a8:	4015      	ands	r5, r2
100034aa:	3180      	adds	r1, #128	; 0x80
100034ac:	29fe      	cmp	r1, #254	; 0xfe
100034ae:	dcb0      	bgt.n	10003412 <__aeabi_fdiv+0x116>
100034b0:	01a8      	lsls	r0, r5, #6
100034b2:	0a45      	lsrs	r5, r0, #9
100034b4:	b2ce      	uxtb	r6, r1
100034b6:	9b01      	ldr	r3, [sp, #4]
100034b8:	e7ae      	b.n	10003418 <__aeabi_fdiv+0x11c>
100034ba:	2600      	movs	r6, #0
100034bc:	2500      	movs	r5, #0
100034be:	e7ab      	b.n	10003418 <__aeabi_fdiv+0x11c>
100034c0:	2080      	movs	r0, #128	; 0x80
100034c2:	03c1      	lsls	r1, r0, #15
100034c4:	420d      	tst	r5, r1
100034c6:	d011      	beq.n	100034ec <__aeabi_fdiv+0x1f0>
100034c8:	420e      	tst	r6, r1
100034ca:	d10f      	bne.n	100034ec <__aeabi_fdiv+0x1f0>
100034cc:	430e      	orrs	r6, r1
100034ce:	0273      	lsls	r3, r6, #9
100034d0:	0a5d      	lsrs	r5, r3, #9
100034d2:	26ff      	movs	r6, #255	; 0xff
100034d4:	465b      	mov	r3, fp
100034d6:	e79f      	b.n	10003418 <__aeabi_fdiv+0x11c>
100034d8:	9701      	str	r7, [sp, #4]
100034da:	4653      	mov	r3, sl
100034dc:	e7d1      	b.n	10003482 <__aeabi_fdiv+0x186>
100034de:	1b49      	subs	r1, r1, r5
100034e0:	241a      	movs	r4, #26
100034e2:	2601      	movs	r6, #1
100034e4:	e74c      	b.n	10003380 <__aeabi_fdiv+0x84>
100034e6:	1b5b      	subs	r3, r3, r5
100034e8:	433e      	orrs	r6, r7
100034ea:	e755      	b.n	10003398 <__aeabi_fdiv+0x9c>
100034ec:	430d      	orrs	r5, r1
100034ee:	026a      	lsls	r2, r5, #9
100034f0:	0a55      	lsrs	r5, r2, #9
100034f2:	1c3b      	adds	r3, r7, #0
100034f4:	26ff      	movs	r6, #255	; 0xff
100034f6:	e78f      	b.n	10003418 <__aeabi_fdiv+0x11c>
100034f8:	1c1d      	adds	r5, r3, #0
100034fa:	1e6b      	subs	r3, r5, #1
100034fc:	419d      	sbcs	r5, r3
100034fe:	4335      	orrs	r5, r6
10003500:	e7c5      	b.n	1000348e <__aeabi_fdiv+0x192>
10003502:	247e      	movs	r4, #126	; 0x7e
10003504:	4267      	negs	r7, r4
10003506:	464a      	mov	r2, r9
10003508:	1ab9      	subs	r1, r7, r2
1000350a:	291b      	cmp	r1, #27
1000350c:	dd08      	ble.n	10003520 <__aeabi_fdiv+0x224>
1000350e:	9b01      	ldr	r3, [sp, #4]
10003510:	2600      	movs	r6, #0
10003512:	2500      	movs	r5, #0
10003514:	e780      	b.n	10003418 <__aeabi_fdiv+0x11c>
10003516:	9d01      	ldr	r5, [sp, #4]
10003518:	2600      	movs	r6, #0
1000351a:	402b      	ands	r3, r5
1000351c:	2500      	movs	r5, #0
1000351e:	e77b      	b.n	10003418 <__aeabi_fdiv+0x11c>
10003520:	464e      	mov	r6, r9
10003522:	369e      	adds	r6, #158	; 0x9e
10003524:	1c28      	adds	r0, r5, #0
10003526:	40b5      	lsls	r5, r6
10003528:	1c2b      	adds	r3, r5, #0
1000352a:	1e5d      	subs	r5, r3, #1
1000352c:	41ab      	sbcs	r3, r5
1000352e:	40c8      	lsrs	r0, r1
10003530:	4303      	orrs	r3, r0
10003532:	250f      	movs	r5, #15
10003534:	401d      	ands	r5, r3
10003536:	2d04      	cmp	r5, #4
10003538:	d000      	beq.n	1000353c <__aeabi_fdiv+0x240>
1000353a:	3304      	adds	r3, #4
1000353c:	015a      	lsls	r2, r3, #5
1000353e:	d503      	bpl.n	10003548 <__aeabi_fdiv+0x24c>
10003540:	9b01      	ldr	r3, [sp, #4]
10003542:	2601      	movs	r6, #1
10003544:	2500      	movs	r5, #0
10003546:	e767      	b.n	10003418 <__aeabi_fdiv+0x11c>
10003548:	019c      	lsls	r4, r3, #6
1000354a:	0a65      	lsrs	r5, r4, #9
1000354c:	9b01      	ldr	r3, [sp, #4]
1000354e:	2600      	movs	r6, #0
10003550:	e762      	b.n	10003418 <__aeabi_fdiv+0x11c>
10003552:	2780      	movs	r7, #128	; 0x80
10003554:	03fc      	lsls	r4, r7, #15
10003556:	4325      	orrs	r5, r4
10003558:	026e      	lsls	r6, r5, #9
1000355a:	0a75      	lsrs	r5, r6, #9
1000355c:	9b01      	ldr	r3, [sp, #4]
1000355e:	26ff      	movs	r6, #255	; 0xff
10003560:	e75a      	b.n	10003418 <__aeabi_fdiv+0x11c>
10003562:	46c0      	nop			; (mov r8, r8)
10003564:	10003e80 	.word	0x10003e80
10003568:	007fffff 	.word	0x007fffff
1000356c:	f7ffffff 	.word	0xf7ffffff

10003570 <__eqsf2>:
10003570:	0243      	lsls	r3, r0, #9
10003572:	0042      	lsls	r2, r0, #1
10003574:	b570      	push	{r4, r5, r6, lr}
10003576:	0a5c      	lsrs	r4, r3, #9
10003578:	0fc6      	lsrs	r6, r0, #31
1000357a:	0e13      	lsrs	r3, r2, #24
1000357c:	0248      	lsls	r0, r1, #9
1000357e:	004a      	lsls	r2, r1, #1
10003580:	0a45      	lsrs	r5, r0, #9
10003582:	0e12      	lsrs	r2, r2, #24
10003584:	0fc9      	lsrs	r1, r1, #31
10003586:	2bff      	cmp	r3, #255	; 0xff
10003588:	d005      	beq.n	10003596 <__eqsf2+0x26>
1000358a:	2aff      	cmp	r2, #255	; 0xff
1000358c:	d008      	beq.n	100035a0 <__eqsf2+0x30>
1000358e:	2001      	movs	r0, #1
10003590:	4293      	cmp	r3, r2
10003592:	d00b      	beq.n	100035ac <__eqsf2+0x3c>
10003594:	bd70      	pop	{r4, r5, r6, pc}
10003596:	2001      	movs	r0, #1
10003598:	2c00      	cmp	r4, #0
1000359a:	d1fb      	bne.n	10003594 <__eqsf2+0x24>
1000359c:	2aff      	cmp	r2, #255	; 0xff
1000359e:	d1f6      	bne.n	1000358e <__eqsf2+0x1e>
100035a0:	2001      	movs	r0, #1
100035a2:	2d00      	cmp	r5, #0
100035a4:	d1f6      	bne.n	10003594 <__eqsf2+0x24>
100035a6:	2001      	movs	r0, #1
100035a8:	4293      	cmp	r3, r2
100035aa:	d1f3      	bne.n	10003594 <__eqsf2+0x24>
100035ac:	42ac      	cmp	r4, r5
100035ae:	d1f1      	bne.n	10003594 <__eqsf2+0x24>
100035b0:	428e      	cmp	r6, r1
100035b2:	d003      	beq.n	100035bc <__eqsf2+0x4c>
100035b4:	2b00      	cmp	r3, #0
100035b6:	d1ed      	bne.n	10003594 <__eqsf2+0x24>
100035b8:	2c00      	cmp	r4, #0
100035ba:	d1eb      	bne.n	10003594 <__eqsf2+0x24>
100035bc:	2000      	movs	r0, #0
100035be:	e7e9      	b.n	10003594 <__eqsf2+0x24>

100035c0 <__gesf2>:
100035c0:	b5f0      	push	{r4, r5, r6, r7, lr}
100035c2:	0243      	lsls	r3, r0, #9
100035c4:	0042      	lsls	r2, r0, #1
100035c6:	004f      	lsls	r7, r1, #1
100035c8:	0fc6      	lsrs	r6, r0, #31
100035ca:	0248      	lsls	r0, r1, #9
100035cc:	0a5c      	lsrs	r4, r3, #9
100035ce:	0a45      	lsrs	r5, r0, #9
100035d0:	0e13      	lsrs	r3, r2, #24
100035d2:	0fc9      	lsrs	r1, r1, #31
100035d4:	0e3a      	lsrs	r2, r7, #24
100035d6:	2bff      	cmp	r3, #255	; 0xff
100035d8:	d026      	beq.n	10003628 <__gesf2+0x68>
100035da:	2aff      	cmp	r2, #255	; 0xff
100035dc:	d029      	beq.n	10003632 <__gesf2+0x72>
100035de:	2b00      	cmp	r3, #0
100035e0:	d10c      	bne.n	100035fc <__gesf2+0x3c>
100035e2:	4260      	negs	r0, r4
100035e4:	4160      	adcs	r0, r4
100035e6:	4684      	mov	ip, r0
100035e8:	2a00      	cmp	r2, #0
100035ea:	d00a      	beq.n	10003602 <__gesf2+0x42>
100035ec:	2800      	cmp	r0, #0
100035ee:	d116      	bne.n	1000361e <__gesf2+0x5e>
100035f0:	428e      	cmp	r6, r1
100035f2:	d021      	beq.n	10003638 <__gesf2+0x78>
100035f4:	2e00      	cmp	r6, #0
100035f6:	d114      	bne.n	10003622 <__gesf2+0x62>
100035f8:	2001      	movs	r0, #1
100035fa:	e014      	b.n	10003626 <__gesf2+0x66>
100035fc:	2a00      	cmp	r2, #0
100035fe:	d1f7      	bne.n	100035f0 <__gesf2+0x30>
10003600:	4694      	mov	ip, r2
10003602:	426f      	negs	r7, r5
10003604:	416f      	adcs	r7, r5
10003606:	4660      	mov	r0, ip
10003608:	2800      	cmp	r0, #0
1000360a:	d105      	bne.n	10003618 <__gesf2+0x58>
1000360c:	2f00      	cmp	r7, #0
1000360e:	d0ef      	beq.n	100035f0 <__gesf2+0x30>
10003610:	2001      	movs	r0, #1
10003612:	2e00      	cmp	r6, #0
10003614:	d007      	beq.n	10003626 <__gesf2+0x66>
10003616:	e004      	b.n	10003622 <__gesf2+0x62>
10003618:	2000      	movs	r0, #0
1000361a:	2f00      	cmp	r7, #0
1000361c:	d103      	bne.n	10003626 <__gesf2+0x66>
1000361e:	2900      	cmp	r1, #0
10003620:	d1ea      	bne.n	100035f8 <__gesf2+0x38>
10003622:	2101      	movs	r1, #1
10003624:	4248      	negs	r0, r1
10003626:	bdf0      	pop	{r4, r5, r6, r7, pc}
10003628:	2c00      	cmp	r4, #0
1000362a:	d0d6      	beq.n	100035da <__gesf2+0x1a>
1000362c:	2202      	movs	r2, #2
1000362e:	4250      	negs	r0, r2
10003630:	e7f9      	b.n	10003626 <__gesf2+0x66>
10003632:	2d00      	cmp	r5, #0
10003634:	d0d3      	beq.n	100035de <__gesf2+0x1e>
10003636:	e7f9      	b.n	1000362c <__gesf2+0x6c>
10003638:	4293      	cmp	r3, r2
1000363a:	dcdb      	bgt.n	100035f4 <__gesf2+0x34>
1000363c:	db04      	blt.n	10003648 <__gesf2+0x88>
1000363e:	42ac      	cmp	r4, r5
10003640:	d8d8      	bhi.n	100035f4 <__gesf2+0x34>
10003642:	2000      	movs	r0, #0
10003644:	42ac      	cmp	r4, r5
10003646:	d2ee      	bcs.n	10003626 <__gesf2+0x66>
10003648:	2e00      	cmp	r6, #0
1000364a:	d0ea      	beq.n	10003622 <__gesf2+0x62>
1000364c:	2001      	movs	r0, #1
1000364e:	e7ea      	b.n	10003626 <__gesf2+0x66>

10003650 <__lesf2>:
10003650:	b5f0      	push	{r4, r5, r6, r7, lr}
10003652:	0243      	lsls	r3, r0, #9
10003654:	0042      	lsls	r2, r0, #1
10003656:	004f      	lsls	r7, r1, #1
10003658:	0fc6      	lsrs	r6, r0, #31
1000365a:	0248      	lsls	r0, r1, #9
1000365c:	0a5c      	lsrs	r4, r3, #9
1000365e:	0a45      	lsrs	r5, r0, #9
10003660:	0e13      	lsrs	r3, r2, #24
10003662:	0fc9      	lsrs	r1, r1, #31
10003664:	0e3a      	lsrs	r2, r7, #24
10003666:	2bff      	cmp	r3, #255	; 0xff
10003668:	d026      	beq.n	100036b8 <__lesf2+0x68>
1000366a:	2aff      	cmp	r2, #255	; 0xff
1000366c:	d028      	beq.n	100036c0 <__lesf2+0x70>
1000366e:	2b00      	cmp	r3, #0
10003670:	d00f      	beq.n	10003692 <__lesf2+0x42>
10003672:	2a00      	cmp	r2, #0
10003674:	d114      	bne.n	100036a0 <__lesf2+0x50>
10003676:	4694      	mov	ip, r2
10003678:	426f      	negs	r7, r5
1000367a:	416f      	adcs	r7, r5
1000367c:	4660      	mov	r0, ip
1000367e:	2800      	cmp	r0, #0
10003680:	d014      	beq.n	100036ac <__lesf2+0x5c>
10003682:	2000      	movs	r0, #0
10003684:	2f00      	cmp	r7, #0
10003686:	d103      	bne.n	10003690 <__lesf2+0x40>
10003688:	2900      	cmp	r1, #0
1000368a:	d10d      	bne.n	100036a8 <__lesf2+0x58>
1000368c:	2101      	movs	r1, #1
1000368e:	4248      	negs	r0, r1
10003690:	bdf0      	pop	{r4, r5, r6, r7, pc}
10003692:	4260      	negs	r0, r4
10003694:	4160      	adcs	r0, r4
10003696:	4684      	mov	ip, r0
10003698:	2a00      	cmp	r2, #0
1000369a:	d0ed      	beq.n	10003678 <__lesf2+0x28>
1000369c:	2800      	cmp	r0, #0
1000369e:	d1f3      	bne.n	10003688 <__lesf2+0x38>
100036a0:	428e      	cmp	r6, r1
100036a2:	d011      	beq.n	100036c8 <__lesf2+0x78>
100036a4:	2e00      	cmp	r6, #0
100036a6:	d1f1      	bne.n	1000368c <__lesf2+0x3c>
100036a8:	2001      	movs	r0, #1
100036aa:	e7f1      	b.n	10003690 <__lesf2+0x40>
100036ac:	2f00      	cmp	r7, #0
100036ae:	d0f7      	beq.n	100036a0 <__lesf2+0x50>
100036b0:	2001      	movs	r0, #1
100036b2:	2e00      	cmp	r6, #0
100036b4:	d0ec      	beq.n	10003690 <__lesf2+0x40>
100036b6:	e7e9      	b.n	1000368c <__lesf2+0x3c>
100036b8:	2002      	movs	r0, #2
100036ba:	2c00      	cmp	r4, #0
100036bc:	d1e8      	bne.n	10003690 <__lesf2+0x40>
100036be:	e7d4      	b.n	1000366a <__lesf2+0x1a>
100036c0:	2002      	movs	r0, #2
100036c2:	2d00      	cmp	r5, #0
100036c4:	d1e4      	bne.n	10003690 <__lesf2+0x40>
100036c6:	e7d2      	b.n	1000366e <__lesf2+0x1e>
100036c8:	4293      	cmp	r3, r2
100036ca:	dceb      	bgt.n	100036a4 <__lesf2+0x54>
100036cc:	db04      	blt.n	100036d8 <__lesf2+0x88>
100036ce:	42ac      	cmp	r4, r5
100036d0:	d8e8      	bhi.n	100036a4 <__lesf2+0x54>
100036d2:	2000      	movs	r0, #0
100036d4:	42ac      	cmp	r4, r5
100036d6:	d2db      	bcs.n	10003690 <__lesf2+0x40>
100036d8:	2e00      	cmp	r6, #0
100036da:	d0d7      	beq.n	1000368c <__lesf2+0x3c>
100036dc:	2001      	movs	r0, #1
100036de:	e7d7      	b.n	10003690 <__lesf2+0x40>

100036e0 <__aeabi_fmul>:
100036e0:	b5f0      	push	{r4, r5, r6, r7, lr}
100036e2:	465f      	mov	r7, fp
100036e4:	4656      	mov	r6, sl
100036e6:	464d      	mov	r5, r9
100036e8:	4644      	mov	r4, r8
100036ea:	b4f0      	push	{r4, r5, r6, r7}
100036ec:	0245      	lsls	r5, r0, #9
100036ee:	0046      	lsls	r6, r0, #1
100036f0:	b083      	sub	sp, #12
100036f2:	1c0f      	adds	r7, r1, #0
100036f4:	0a6d      	lsrs	r5, r5, #9
100036f6:	0e36      	lsrs	r6, r6, #24
100036f8:	0fc4      	lsrs	r4, r0, #31
100036fa:	2e00      	cmp	r6, #0
100036fc:	d106      	bne.n	1000370c <__aeabi_fmul+0x2c>
100036fe:	2d00      	cmp	r5, #0
10003700:	d170      	bne.n	100037e4 <__aeabi_fmul+0x104>
10003702:	2104      	movs	r1, #4
10003704:	2201      	movs	r2, #1
10003706:	4688      	mov	r8, r1
10003708:	4692      	mov	sl, r2
1000370a:	e009      	b.n	10003720 <__aeabi_fmul+0x40>
1000370c:	2eff      	cmp	r6, #255	; 0xff
1000370e:	d043      	beq.n	10003798 <__aeabi_fmul+0xb8>
10003710:	2380      	movs	r3, #128	; 0x80
10003712:	0418      	lsls	r0, r3, #16
10003714:	2100      	movs	r1, #0
10003716:	4305      	orrs	r5, r0
10003718:	00ed      	lsls	r5, r5, #3
1000371a:	3e7f      	subs	r6, #127	; 0x7f
1000371c:	4688      	mov	r8, r1
1000371e:	468a      	mov	sl, r1
10003720:	1c38      	adds	r0, r7, #0
10003722:	0043      	lsls	r3, r0, #1
10003724:	027f      	lsls	r7, r7, #9
10003726:	0fc1      	lsrs	r1, r0, #31
10003728:	0a7f      	lsrs	r7, r7, #9
1000372a:	0e1b      	lsrs	r3, r3, #24
1000372c:	468b      	mov	fp, r1
1000372e:	d13a      	bne.n	100037a6 <__aeabi_fmul+0xc6>
10003730:	2101      	movs	r1, #1
10003732:	2f00      	cmp	r7, #0
10003734:	d162      	bne.n	100037fc <__aeabi_fmul+0x11c>
10003736:	4658      	mov	r0, fp
10003738:	4060      	eors	r0, r4
1000373a:	4642      	mov	r2, r8
1000373c:	9001      	str	r0, [sp, #4]
1000373e:	430a      	orrs	r2, r1
10003740:	2a0f      	cmp	r2, #15
10003742:	d93f      	bls.n	100037c4 <__aeabi_fmul+0xe4>
10003744:	042c      	lsls	r4, r5, #16
10003746:	18f0      	adds	r0, r6, r3
10003748:	0c26      	lsrs	r6, r4, #16
1000374a:	043b      	lsls	r3, r7, #16
1000374c:	0c1a      	lsrs	r2, r3, #16
1000374e:	1c31      	adds	r1, r6, #0
10003750:	4351      	muls	r1, r2
10003752:	0c3f      	lsrs	r7, r7, #16
10003754:	0c2d      	lsrs	r5, r5, #16
10003756:	437e      	muls	r6, r7
10003758:	436a      	muls	r2, r5
1000375a:	4681      	mov	r9, r0
1000375c:	0c08      	lsrs	r0, r1, #16
1000375e:	1836      	adds	r6, r6, r0
10003760:	1c2c      	adds	r4, r5, #0
10003762:	18b3      	adds	r3, r6, r2
10003764:	437c      	muls	r4, r7
10003766:	429a      	cmp	r2, r3
10003768:	d900      	bls.n	1000376c <__aeabi_fmul+0x8c>
1000376a:	e09a      	b.n	100038a2 <__aeabi_fmul+0x1c2>
1000376c:	0409      	lsls	r1, r1, #16
1000376e:	041d      	lsls	r5, r3, #16
10003770:	0c08      	lsrs	r0, r1, #16
10003772:	182e      	adds	r6, r5, r0
10003774:	01b5      	lsls	r5, r6, #6
10003776:	0c1b      	lsrs	r3, r3, #16
10003778:	1e69      	subs	r1, r5, #1
1000377a:	418d      	sbcs	r5, r1
1000377c:	0eb2      	lsrs	r2, r6, #26
1000377e:	18e7      	adds	r7, r4, r3
10003780:	4315      	orrs	r5, r2
10003782:	01bc      	lsls	r4, r7, #6
10003784:	4325      	orrs	r5, r4
10003786:	012b      	lsls	r3, r5, #4
10003788:	d54b      	bpl.n	10003822 <__aeabi_fmul+0x142>
1000378a:	2001      	movs	r0, #1
1000378c:	4028      	ands	r0, r5
1000378e:	2101      	movs	r1, #1
10003790:	086d      	lsrs	r5, r5, #1
10003792:	4489      	add	r9, r1
10003794:	4305      	orrs	r5, r0
10003796:	e044      	b.n	10003822 <__aeabi_fmul+0x142>
10003798:	2d00      	cmp	r5, #0
1000379a:	d11e      	bne.n	100037da <__aeabi_fmul+0xfa>
1000379c:	2008      	movs	r0, #8
1000379e:	2102      	movs	r1, #2
100037a0:	4680      	mov	r8, r0
100037a2:	468a      	mov	sl, r1
100037a4:	e7bc      	b.n	10003720 <__aeabi_fmul+0x40>
100037a6:	2bff      	cmp	r3, #255	; 0xff
100037a8:	d012      	beq.n	100037d0 <__aeabi_fmul+0xf0>
100037aa:	2280      	movs	r2, #128	; 0x80
100037ac:	0410      	lsls	r0, r2, #16
100037ae:	4307      	orrs	r7, r0
100037b0:	4658      	mov	r0, fp
100037b2:	2100      	movs	r1, #0
100037b4:	4060      	eors	r0, r4
100037b6:	4642      	mov	r2, r8
100037b8:	00ff      	lsls	r7, r7, #3
100037ba:	3b7f      	subs	r3, #127	; 0x7f
100037bc:	9001      	str	r0, [sp, #4]
100037be:	430a      	orrs	r2, r1
100037c0:	2a0f      	cmp	r2, #15
100037c2:	d8bf      	bhi.n	10003744 <__aeabi_fmul+0x64>
100037c4:	0090      	lsls	r0, r2, #2
100037c6:	4a5b      	ldr	r2, [pc, #364]	; (10003934 <__aeabi_fmul+0x254>)
100037c8:	4684      	mov	ip, r0
100037ca:	4462      	add	r2, ip
100037cc:	6810      	ldr	r0, [r2, #0]
100037ce:	4687      	mov	pc, r0
100037d0:	1c39      	adds	r1, r7, #0
100037d2:	1e4a      	subs	r2, r1, #1
100037d4:	4191      	sbcs	r1, r2
100037d6:	3102      	adds	r1, #2
100037d8:	e7ad      	b.n	10003736 <__aeabi_fmul+0x56>
100037da:	220c      	movs	r2, #12
100037dc:	2303      	movs	r3, #3
100037de:	4690      	mov	r8, r2
100037e0:	469a      	mov	sl, r3
100037e2:	e79d      	b.n	10003720 <__aeabi_fmul+0x40>
100037e4:	1c28      	adds	r0, r5, #0
100037e6:	f000 faf9 	bl	10003ddc <__clzsi2>
100037ea:	2276      	movs	r2, #118	; 0x76
100037ec:	1f46      	subs	r6, r0, #5
100037ee:	4253      	negs	r3, r2
100037f0:	40b5      	lsls	r5, r6
100037f2:	1a1e      	subs	r6, r3, r0
100037f4:	2000      	movs	r0, #0
100037f6:	4680      	mov	r8, r0
100037f8:	4682      	mov	sl, r0
100037fa:	e791      	b.n	10003720 <__aeabi_fmul+0x40>
100037fc:	1c38      	adds	r0, r7, #0
100037fe:	f000 faed 	bl	10003ddc <__clzsi2>
10003802:	2176      	movs	r1, #118	; 0x76
10003804:	1f43      	subs	r3, r0, #5
10003806:	424a      	negs	r2, r1
10003808:	409f      	lsls	r7, r3
1000380a:	2100      	movs	r1, #0
1000380c:	1a13      	subs	r3, r2, r0
1000380e:	e792      	b.n	10003736 <__aeabi_fmul+0x56>
10003810:	9401      	str	r4, [sp, #4]
10003812:	4651      	mov	r1, sl
10003814:	2902      	cmp	r1, #2
10003816:	d02c      	beq.n	10003872 <__aeabi_fmul+0x192>
10003818:	2903      	cmp	r1, #3
1000381a:	d100      	bne.n	1000381e <__aeabi_fmul+0x13e>
1000381c:	e080      	b.n	10003920 <__aeabi_fmul+0x240>
1000381e:	2901      	cmp	r1, #1
10003820:	d048      	beq.n	100038b4 <__aeabi_fmul+0x1d4>
10003822:	464e      	mov	r6, r9
10003824:	367f      	adds	r6, #127	; 0x7f
10003826:	2e00      	cmp	r6, #0
10003828:	dd51      	ble.n	100038ce <__aeabi_fmul+0x1ee>
1000382a:	240f      	movs	r4, #15
1000382c:	402c      	ands	r4, r5
1000382e:	2c04      	cmp	r4, #4
10003830:	d000      	beq.n	10003834 <__aeabi_fmul+0x154>
10003832:	3504      	adds	r5, #4
10003834:	012a      	lsls	r2, r5, #4
10003836:	d503      	bpl.n	10003840 <__aeabi_fmul+0x160>
10003838:	493f      	ldr	r1, [pc, #252]	; (10003938 <__aeabi_fmul+0x258>)
1000383a:	464e      	mov	r6, r9
1000383c:	400d      	ands	r5, r1
1000383e:	3680      	adds	r6, #128	; 0x80
10003840:	2efe      	cmp	r6, #254	; 0xfe
10003842:	dd3d      	ble.n	100038c0 <__aeabi_fmul+0x1e0>
10003844:	9b01      	ldr	r3, [sp, #4]
10003846:	2401      	movs	r4, #1
10003848:	401c      	ands	r4, r3
1000384a:	21ff      	movs	r1, #255	; 0xff
1000384c:	2500      	movs	r5, #0
1000384e:	05c8      	lsls	r0, r1, #23
10003850:	07e2      	lsls	r2, r4, #31
10003852:	4328      	orrs	r0, r5
10003854:	4310      	orrs	r0, r2
10003856:	b003      	add	sp, #12
10003858:	bc3c      	pop	{r2, r3, r4, r5}
1000385a:	4690      	mov	r8, r2
1000385c:	4699      	mov	r9, r3
1000385e:	46a2      	mov	sl, r4
10003860:	46ab      	mov	fp, r5
10003862:	bdf0      	pop	{r4, r5, r6, r7, pc}
10003864:	2400      	movs	r4, #0
10003866:	4d35      	ldr	r5, [pc, #212]	; (1000393c <__aeabi_fmul+0x25c>)
10003868:	21ff      	movs	r1, #255	; 0xff
1000386a:	e7f0      	b.n	1000384e <__aeabi_fmul+0x16e>
1000386c:	4651      	mov	r1, sl
1000386e:	2902      	cmp	r1, #2
10003870:	d1d2      	bne.n	10003818 <__aeabi_fmul+0x138>
10003872:	9d01      	ldr	r5, [sp, #4]
10003874:	2401      	movs	r4, #1
10003876:	402c      	ands	r4, r5
10003878:	21ff      	movs	r1, #255	; 0xff
1000387a:	2500      	movs	r5, #0
1000387c:	e7e7      	b.n	1000384e <__aeabi_fmul+0x16e>
1000387e:	465e      	mov	r6, fp
10003880:	1c3d      	adds	r5, r7, #0
10003882:	9601      	str	r6, [sp, #4]
10003884:	e7c6      	b.n	10003814 <__aeabi_fmul+0x134>
10003886:	1c3d      	adds	r5, r7, #0
10003888:	e7c4      	b.n	10003814 <__aeabi_fmul+0x134>
1000388a:	2680      	movs	r6, #128	; 0x80
1000388c:	03f3      	lsls	r3, r6, #15
1000388e:	421d      	tst	r5, r3
10003890:	d00b      	beq.n	100038aa <__aeabi_fmul+0x1ca>
10003892:	421f      	tst	r7, r3
10003894:	d109      	bne.n	100038aa <__aeabi_fmul+0x1ca>
10003896:	431f      	orrs	r7, r3
10003898:	027a      	lsls	r2, r7, #9
1000389a:	0a55      	lsrs	r5, r2, #9
1000389c:	465c      	mov	r4, fp
1000389e:	21ff      	movs	r1, #255	; 0xff
100038a0:	e7d5      	b.n	1000384e <__aeabi_fmul+0x16e>
100038a2:	2280      	movs	r2, #128	; 0x80
100038a4:	0257      	lsls	r7, r2, #9
100038a6:	19e4      	adds	r4, r4, r7
100038a8:	e760      	b.n	1000376c <__aeabi_fmul+0x8c>
100038aa:	431d      	orrs	r5, r3
100038ac:	026f      	lsls	r7, r5, #9
100038ae:	0a7d      	lsrs	r5, r7, #9
100038b0:	21ff      	movs	r1, #255	; 0xff
100038b2:	e7cc      	b.n	1000384e <__aeabi_fmul+0x16e>
100038b4:	9b01      	ldr	r3, [sp, #4]
100038b6:	2500      	movs	r5, #0
100038b8:	4019      	ands	r1, r3
100038ba:	b2cc      	uxtb	r4, r1
100038bc:	2100      	movs	r1, #0
100038be:	e7c6      	b.n	1000384e <__aeabi_fmul+0x16e>
100038c0:	9801      	ldr	r0, [sp, #4]
100038c2:	01ad      	lsls	r5, r5, #6
100038c4:	2401      	movs	r4, #1
100038c6:	0a6d      	lsrs	r5, r5, #9
100038c8:	b2f1      	uxtb	r1, r6
100038ca:	4004      	ands	r4, r0
100038cc:	e7bf      	b.n	1000384e <__aeabi_fmul+0x16e>
100038ce:	267e      	movs	r6, #126	; 0x7e
100038d0:	4273      	negs	r3, r6
100038d2:	464a      	mov	r2, r9
100038d4:	1a9f      	subs	r7, r3, r2
100038d6:	2f1b      	cmp	r7, #27
100038d8:	dd05      	ble.n	100038e6 <__aeabi_fmul+0x206>
100038da:	9d01      	ldr	r5, [sp, #4]
100038dc:	2401      	movs	r4, #1
100038de:	402c      	ands	r4, r5
100038e0:	2100      	movs	r1, #0
100038e2:	2500      	movs	r5, #0
100038e4:	e7b3      	b.n	1000384e <__aeabi_fmul+0x16e>
100038e6:	4649      	mov	r1, r9
100038e8:	319e      	adds	r1, #158	; 0x9e
100038ea:	1c2c      	adds	r4, r5, #0
100038ec:	408d      	lsls	r5, r1
100038ee:	1c2e      	adds	r6, r5, #0
100038f0:	40fc      	lsrs	r4, r7
100038f2:	1e75      	subs	r5, r6, #1
100038f4:	41ae      	sbcs	r6, r5
100038f6:	4326      	orrs	r6, r4
100038f8:	200f      	movs	r0, #15
100038fa:	4030      	ands	r0, r6
100038fc:	2804      	cmp	r0, #4
100038fe:	d000      	beq.n	10003902 <__aeabi_fmul+0x222>
10003900:	3604      	adds	r6, #4
10003902:	0170      	lsls	r0, r6, #5
10003904:	d505      	bpl.n	10003912 <__aeabi_fmul+0x232>
10003906:	9f01      	ldr	r7, [sp, #4]
10003908:	2401      	movs	r4, #1
1000390a:	403c      	ands	r4, r7
1000390c:	2101      	movs	r1, #1
1000390e:	2500      	movs	r5, #0
10003910:	e79d      	b.n	1000384e <__aeabi_fmul+0x16e>
10003912:	9a01      	ldr	r2, [sp, #4]
10003914:	01b3      	lsls	r3, r6, #6
10003916:	2401      	movs	r4, #1
10003918:	0a5d      	lsrs	r5, r3, #9
1000391a:	4014      	ands	r4, r2
1000391c:	2100      	movs	r1, #0
1000391e:	e796      	b.n	1000384e <__aeabi_fmul+0x16e>
10003920:	2280      	movs	r2, #128	; 0x80
10003922:	03d0      	lsls	r0, r2, #15
10003924:	4305      	orrs	r5, r0
10003926:	026c      	lsls	r4, r5, #9
10003928:	9901      	ldr	r1, [sp, #4]
1000392a:	0a65      	lsrs	r5, r4, #9
1000392c:	2401      	movs	r4, #1
1000392e:	400c      	ands	r4, r1
10003930:	21ff      	movs	r1, #255	; 0xff
10003932:	e78c      	b.n	1000384e <__aeabi_fmul+0x16e>
10003934:	10003ec0 	.word	0x10003ec0
10003938:	f7ffffff 	.word	0xf7ffffff
1000393c:	007fffff 	.word	0x007fffff

10003940 <__aeabi_fsub>:
10003940:	b5f8      	push	{r3, r4, r5, r6, r7, lr}
10003942:	0243      	lsls	r3, r0, #9
10003944:	0045      	lsls	r5, r0, #1
10003946:	024f      	lsls	r7, r1, #9
10003948:	004c      	lsls	r4, r1, #1
1000394a:	0fc2      	lsrs	r2, r0, #31
1000394c:	0998      	lsrs	r0, r3, #6
1000394e:	4684      	mov	ip, r0
10003950:	0e2d      	lsrs	r5, r5, #24
10003952:	0e20      	lsrs	r0, r4, #24
10003954:	0fc9      	lsrs	r1, r1, #31
10003956:	09bf      	lsrs	r7, r7, #6
10003958:	28ff      	cmp	r0, #255	; 0xff
1000395a:	d054      	beq.n	10003a06 <__aeabi_fsub+0xc6>
1000395c:	2601      	movs	r6, #1
1000395e:	4071      	eors	r1, r6
10003960:	428a      	cmp	r2, r1
10003962:	d03b      	beq.n	100039dc <__aeabi_fsub+0x9c>
10003964:	1a2c      	subs	r4, r5, r0
10003966:	2c00      	cmp	r4, #0
10003968:	dc00      	bgt.n	1000396c <__aeabi_fsub+0x2c>
1000396a:	e089      	b.n	10003a80 <__aeabi_fsub+0x140>
1000396c:	2800      	cmp	r0, #0
1000396e:	d125      	bne.n	100039bc <__aeabi_fsub+0x7c>
10003970:	2f00      	cmp	r7, #0
10003972:	d14b      	bne.n	10003a0c <__aeabi_fsub+0xcc>
10003974:	1c6e      	adds	r6, r5, #1
10003976:	1c2c      	adds	r4, r5, #0
10003978:	4663      	mov	r3, ip
1000397a:	1c15      	adds	r5, r2, #0
1000397c:	220f      	movs	r2, #15
1000397e:	401a      	ands	r2, r3
10003980:	2a04      	cmp	r2, #4
10003982:	d000      	beq.n	10003986 <__aeabi_fsub+0x46>
10003984:	3304      	adds	r3, #4
10003986:	2780      	movs	r7, #128	; 0x80
10003988:	04f9      	lsls	r1, r7, #19
1000398a:	2201      	movs	r2, #1
1000398c:	4019      	ands	r1, r3
1000398e:	402a      	ands	r2, r5
10003990:	2900      	cmp	r1, #0
10003992:	d006      	beq.n	100039a2 <__aeabi_fsub+0x62>
10003994:	2eff      	cmp	r6, #255	; 0xff
10003996:	d100      	bne.n	1000399a <__aeabi_fsub+0x5a>
10003998:	e081      	b.n	10003a9e <__aeabi_fsub+0x15e>
1000399a:	4db1      	ldr	r5, [pc, #708]	; (10003c60 <__aeabi_fsub+0x320>)
1000399c:	1c34      	adds	r4, r6, #0
1000399e:	402b      	ands	r3, r5
100039a0:	3601      	adds	r6, #1
100039a2:	b2f6      	uxtb	r6, r6
100039a4:	08dd      	lsrs	r5, r3, #3
100039a6:	2e01      	cmp	r6, #1
100039a8:	dd62      	ble.n	10003a70 <__aeabi_fsub+0x130>
100039aa:	026b      	lsls	r3, r5, #9
100039ac:	0a5d      	lsrs	r5, r3, #9
100039ae:	b2e4      	uxtb	r4, r4
100039b0:	05e4      	lsls	r4, r4, #23
100039b2:	4325      	orrs	r5, r4
100039b4:	1c28      	adds	r0, r5, #0
100039b6:	07d2      	lsls	r2, r2, #31
100039b8:	4310      	orrs	r0, r2
100039ba:	bdf8      	pop	{r3, r4, r5, r6, r7, pc}
100039bc:	2dff      	cmp	r5, #255	; 0xff
100039be:	d051      	beq.n	10003a64 <__aeabi_fsub+0x124>
100039c0:	2180      	movs	r1, #128	; 0x80
100039c2:	04cb      	lsls	r3, r1, #19
100039c4:	431f      	orrs	r7, r3
100039c6:	2601      	movs	r6, #1
100039c8:	2c1b      	cmp	r4, #27
100039ca:	dd70      	ble.n	10003aae <__aeabi_fsub+0x16e>
100039cc:	4667      	mov	r7, ip
100039ce:	1c2c      	adds	r4, r5, #0
100039d0:	1bbb      	subs	r3, r7, r6
100039d2:	1c15      	adds	r5, r2, #0
100039d4:	0158      	lsls	r0, r3, #5
100039d6:	d422      	bmi.n	10003a1e <__aeabi_fsub+0xde>
100039d8:	1c66      	adds	r6, r4, #1
100039da:	e7cf      	b.n	1000397c <__aeabi_fsub+0x3c>
100039dc:	1a2e      	subs	r6, r5, r0
100039de:	2e00      	cmp	r6, #0
100039e0:	dd76      	ble.n	10003ad0 <__aeabi_fsub+0x190>
100039e2:	2800      	cmp	r0, #0
100039e4:	d032      	beq.n	10003a4c <__aeabi_fsub+0x10c>
100039e6:	2dff      	cmp	r5, #255	; 0xff
100039e8:	d03c      	beq.n	10003a64 <__aeabi_fsub+0x124>
100039ea:	2480      	movs	r4, #128	; 0x80
100039ec:	04e1      	lsls	r1, r4, #19
100039ee:	430f      	orrs	r7, r1
100039f0:	2301      	movs	r3, #1
100039f2:	2e1b      	cmp	r6, #27
100039f4:	dc00      	bgt.n	100039f8 <__aeabi_fsub+0xb8>
100039f6:	e0d1      	b.n	10003b9c <__aeabi_fsub+0x25c>
100039f8:	4463      	add	r3, ip
100039fa:	1c2c      	adds	r4, r5, #0
100039fc:	0158      	lsls	r0, r3, #5
100039fe:	d47a      	bmi.n	10003af6 <__aeabi_fsub+0x1b6>
10003a00:	1c66      	adds	r6, r4, #1
10003a02:	1c15      	adds	r5, r2, #0
10003a04:	e7ba      	b.n	1000397c <__aeabi_fsub+0x3c>
10003a06:	2f00      	cmp	r7, #0
10003a08:	d1aa      	bne.n	10003960 <__aeabi_fsub+0x20>
10003a0a:	e7a7      	b.n	1000395c <__aeabi_fsub+0x1c>
10003a0c:	3c01      	subs	r4, #1
10003a0e:	2c00      	cmp	r4, #0
10003a10:	d16d      	bne.n	10003aee <__aeabi_fsub+0x1ae>
10003a12:	4663      	mov	r3, ip
10003a14:	1c2c      	adds	r4, r5, #0
10003a16:	1bdb      	subs	r3, r3, r7
10003a18:	1c15      	adds	r5, r2, #0
10003a1a:	0158      	lsls	r0, r3, #5
10003a1c:	d5dc      	bpl.n	100039d8 <__aeabi_fsub+0x98>
10003a1e:	019a      	lsls	r2, r3, #6
10003a20:	0996      	lsrs	r6, r2, #6
10003a22:	1c30      	adds	r0, r6, #0
10003a24:	f000 f9da 	bl	10003ddc <__clzsi2>
10003a28:	3805      	subs	r0, #5
10003a2a:	4086      	lsls	r6, r0
10003a2c:	4284      	cmp	r4, r0
10003a2e:	dc39      	bgt.n	10003aa4 <__aeabi_fsub+0x164>
10003a30:	1b00      	subs	r0, r0, r4
10003a32:	231f      	movs	r3, #31
10003a34:	1a1a      	subs	r2, r3, r0
10003a36:	1c33      	adds	r3, r6, #0
10003a38:	1c31      	adds	r1, r6, #0
10003a3a:	1c44      	adds	r4, r0, #1
10003a3c:	4093      	lsls	r3, r2
10003a3e:	40e1      	lsrs	r1, r4
10003a40:	1e5e      	subs	r6, r3, #1
10003a42:	41b3      	sbcs	r3, r6
10003a44:	430b      	orrs	r3, r1
10003a46:	2601      	movs	r6, #1
10003a48:	2400      	movs	r4, #0
10003a4a:	e797      	b.n	1000397c <__aeabi_fsub+0x3c>
10003a4c:	2f00      	cmp	r7, #0
10003a4e:	d100      	bne.n	10003a52 <__aeabi_fsub+0x112>
10003a50:	e790      	b.n	10003974 <__aeabi_fsub+0x34>
10003a52:	3e01      	subs	r6, #1
10003a54:	2e00      	cmp	r6, #0
10003a56:	d103      	bne.n	10003a60 <__aeabi_fsub+0x120>
10003a58:	4664      	mov	r4, ip
10003a5a:	193b      	adds	r3, r7, r4
10003a5c:	1c2c      	adds	r4, r5, #0
10003a5e:	e7cd      	b.n	100039fc <__aeabi_fsub+0xbc>
10003a60:	2dff      	cmp	r5, #255	; 0xff
10003a62:	d1c5      	bne.n	100039f0 <__aeabi_fsub+0xb0>
10003a64:	1c15      	adds	r5, r2, #0
10003a66:	2280      	movs	r2, #128	; 0x80
10003a68:	4663      	mov	r3, ip
10003a6a:	0056      	lsls	r6, r2, #1
10003a6c:	24ff      	movs	r4, #255	; 0xff
10003a6e:	e785      	b.n	1000397c <__aeabi_fsub+0x3c>
10003a70:	2d00      	cmp	r5, #0
10003a72:	d09c      	beq.n	100039ae <__aeabi_fsub+0x6e>
10003a74:	2c00      	cmp	r4, #0
10003a76:	d028      	beq.n	10003aca <__aeabi_fsub+0x18a>
10003a78:	2080      	movs	r0, #128	; 0x80
10003a7a:	03c7      	lsls	r7, r0, #15
10003a7c:	433d      	orrs	r5, r7
10003a7e:	e794      	b.n	100039aa <__aeabi_fsub+0x6a>
10003a80:	2c00      	cmp	r4, #0
10003a82:	d145      	bne.n	10003b10 <__aeabi_fsub+0x1d0>
10003a84:	1c6b      	adds	r3, r5, #1
10003a86:	b2d8      	uxtb	r0, r3
10003a88:	2801      	cmp	r0, #1
10003a8a:	dc00      	bgt.n	10003a8e <__aeabi_fsub+0x14e>
10003a8c:	e090      	b.n	10003bb0 <__aeabi_fsub+0x270>
10003a8e:	4664      	mov	r4, ip
10003a90:	1be6      	subs	r6, r4, r7
10003a92:	0173      	lsls	r3, r6, #5
10003a94:	d557      	bpl.n	10003b46 <__aeabi_fsub+0x206>
10003a96:	1b3e      	subs	r6, r7, r4
10003a98:	1c2c      	adds	r4, r5, #0
10003a9a:	1c0d      	adds	r5, r1, #0
10003a9c:	e7c1      	b.n	10003a22 <__aeabi_fsub+0xe2>
10003a9e:	24ff      	movs	r4, #255	; 0xff
10003aa0:	2500      	movs	r5, #0
10003aa2:	e785      	b.n	100039b0 <__aeabi_fsub+0x70>
10003aa4:	4b6e      	ldr	r3, [pc, #440]	; (10003c60 <__aeabi_fsub+0x320>)
10003aa6:	1a24      	subs	r4, r4, r0
10003aa8:	4033      	ands	r3, r6
10003aaa:	1c66      	adds	r6, r4, #1
10003aac:	e766      	b.n	1000397c <__aeabi_fsub+0x3c>
10003aae:	1c38      	adds	r0, r7, #0
10003ab0:	2120      	movs	r1, #32
10003ab2:	40e0      	lsrs	r0, r4
10003ab4:	1b0c      	subs	r4, r1, r4
10003ab6:	40a7      	lsls	r7, r4
10003ab8:	1c3e      	adds	r6, r7, #0
10003aba:	1e77      	subs	r7, r6, #1
10003abc:	41be      	sbcs	r6, r7
10003abe:	4306      	orrs	r6, r0
10003ac0:	4667      	mov	r7, ip
10003ac2:	1c2c      	adds	r4, r5, #0
10003ac4:	1bbb      	subs	r3, r7, r6
10003ac6:	1c15      	adds	r5, r2, #0
10003ac8:	e784      	b.n	100039d4 <__aeabi_fsub+0x94>
10003aca:	0269      	lsls	r1, r5, #9
10003acc:	0a4d      	lsrs	r5, r1, #9
10003ace:	e76f      	b.n	100039b0 <__aeabi_fsub+0x70>
10003ad0:	2e00      	cmp	r6, #0
10003ad2:	d179      	bne.n	10003bc8 <__aeabi_fsub+0x288>
10003ad4:	1c6c      	adds	r4, r5, #1
10003ad6:	b2e0      	uxtb	r0, r4
10003ad8:	2801      	cmp	r0, #1
10003ada:	dd4b      	ble.n	10003b74 <__aeabi_fsub+0x234>
10003adc:	2cff      	cmp	r4, #255	; 0xff
10003ade:	d100      	bne.n	10003ae2 <__aeabi_fsub+0x1a2>
10003ae0:	e098      	b.n	10003c14 <__aeabi_fsub+0x2d4>
10003ae2:	4661      	mov	r1, ip
10003ae4:	187f      	adds	r7, r7, r1
10003ae6:	1cae      	adds	r6, r5, #2
10003ae8:	087b      	lsrs	r3, r7, #1
10003aea:	1c15      	adds	r5, r2, #0
10003aec:	e746      	b.n	1000397c <__aeabi_fsub+0x3c>
10003aee:	2dff      	cmp	r5, #255	; 0xff
10003af0:	d000      	beq.n	10003af4 <__aeabi_fsub+0x1b4>
10003af2:	e768      	b.n	100039c6 <__aeabi_fsub+0x86>
10003af4:	e7b6      	b.n	10003a64 <__aeabi_fsub+0x124>
10003af6:	1c67      	adds	r7, r4, #1
10003af8:	2fff      	cmp	r7, #255	; 0xff
10003afa:	d036      	beq.n	10003b6a <__aeabi_fsub+0x22a>
10003afc:	4858      	ldr	r0, [pc, #352]	; (10003c60 <__aeabi_fsub+0x320>)
10003afe:	2101      	movs	r1, #1
10003b00:	4019      	ands	r1, r3
10003b02:	4003      	ands	r3, r0
10003b04:	085b      	lsrs	r3, r3, #1
10003b06:	1ca6      	adds	r6, r4, #2
10003b08:	430b      	orrs	r3, r1
10003b0a:	1c3c      	adds	r4, r7, #0
10003b0c:	1c15      	adds	r5, r2, #0
10003b0e:	e735      	b.n	1000397c <__aeabi_fsub+0x3c>
10003b10:	4266      	negs	r6, r4
10003b12:	2d00      	cmp	r5, #0
10003b14:	d01e      	beq.n	10003b54 <__aeabi_fsub+0x214>
10003b16:	28ff      	cmp	r0, #255	; 0xff
10003b18:	d06f      	beq.n	10003bfa <__aeabi_fsub+0x2ba>
10003b1a:	2580      	movs	r5, #128	; 0x80
10003b1c:	4662      	mov	r2, ip
10003b1e:	04eb      	lsls	r3, r5, #19
10003b20:	431a      	orrs	r2, r3
10003b22:	4694      	mov	ip, r2
10003b24:	2501      	movs	r5, #1
10003b26:	2e1b      	cmp	r6, #27
10003b28:	dc09      	bgt.n	10003b3e <__aeabi_fsub+0x1fe>
10003b2a:	4662      	mov	r2, ip
10003b2c:	2320      	movs	r3, #32
10003b2e:	40f2      	lsrs	r2, r6
10003b30:	4664      	mov	r4, ip
10003b32:	1b9e      	subs	r6, r3, r6
10003b34:	40b4      	lsls	r4, r6
10003b36:	1c25      	adds	r5, r4, #0
10003b38:	1e6c      	subs	r4, r5, #1
10003b3a:	41a5      	sbcs	r5, r4
10003b3c:	4315      	orrs	r5, r2
10003b3e:	1b7b      	subs	r3, r7, r5
10003b40:	1c04      	adds	r4, r0, #0
10003b42:	1c0d      	adds	r5, r1, #0
10003b44:	e769      	b.n	10003a1a <__aeabi_fsub+0xda>
10003b46:	2e00      	cmp	r6, #0
10003b48:	d10c      	bne.n	10003b64 <__aeabi_fsub+0x224>
10003b4a:	2200      	movs	r2, #0
10003b4c:	2601      	movs	r6, #1
10003b4e:	2304      	movs	r3, #4
10003b50:	2400      	movs	r4, #0
10003b52:	e726      	b.n	100039a2 <__aeabi_fsub+0x62>
10003b54:	4664      	mov	r4, ip
10003b56:	2c00      	cmp	r4, #0
10003b58:	d155      	bne.n	10003c06 <__aeabi_fsub+0x2c6>
10003b5a:	1c46      	adds	r6, r0, #1
10003b5c:	1c3b      	adds	r3, r7, #0
10003b5e:	1c04      	adds	r4, r0, #0
10003b60:	1c0d      	adds	r5, r1, #0
10003b62:	e70b      	b.n	1000397c <__aeabi_fsub+0x3c>
10003b64:	1c2c      	adds	r4, r5, #0
10003b66:	1c15      	adds	r5, r2, #0
10003b68:	e75b      	b.n	10003a22 <__aeabi_fsub+0xe2>
10003b6a:	2380      	movs	r3, #128	; 0x80
10003b6c:	005e      	lsls	r6, r3, #1
10003b6e:	24ff      	movs	r4, #255	; 0xff
10003b70:	2304      	movs	r3, #4
10003b72:	e716      	b.n	100039a2 <__aeabi_fsub+0x62>
10003b74:	2d00      	cmp	r5, #0
10003b76:	d000      	beq.n	10003b7a <__aeabi_fsub+0x23a>
10003b78:	e08d      	b.n	10003c96 <__aeabi_fsub+0x356>
10003b7a:	4665      	mov	r5, ip
10003b7c:	2d00      	cmp	r5, #0
10003b7e:	d100      	bne.n	10003b82 <__aeabi_fsub+0x242>
10003b80:	e0ad      	b.n	10003cde <__aeabi_fsub+0x39e>
10003b82:	2f00      	cmp	r7, #0
10003b84:	d100      	bne.n	10003b88 <__aeabi_fsub+0x248>
10003b86:	e081      	b.n	10003c8c <__aeabi_fsub+0x34c>
10003b88:	197b      	adds	r3, r7, r5
10003b8a:	015c      	lsls	r4, r3, #5
10003b8c:	d400      	bmi.n	10003b90 <__aeabi_fsub+0x250>
10003b8e:	e07e      	b.n	10003c8e <__aeabi_fsub+0x34e>
10003b90:	4f33      	ldr	r7, [pc, #204]	; (10003c60 <__aeabi_fsub+0x320>)
10003b92:	1c15      	adds	r5, r2, #0
10003b94:	403b      	ands	r3, r7
10003b96:	2602      	movs	r6, #2
10003b98:	2401      	movs	r4, #1
10003b9a:	e6ef      	b.n	1000397c <__aeabi_fsub+0x3c>
10003b9c:	1c38      	adds	r0, r7, #0
10003b9e:	2320      	movs	r3, #32
10003ba0:	40f0      	lsrs	r0, r6
10003ba2:	1b9e      	subs	r6, r3, r6
10003ba4:	40b7      	lsls	r7, r6
10003ba6:	1c3b      	adds	r3, r7, #0
10003ba8:	1e5f      	subs	r7, r3, #1
10003baa:	41bb      	sbcs	r3, r7
10003bac:	4303      	orrs	r3, r0
10003bae:	e723      	b.n	100039f8 <__aeabi_fsub+0xb8>
10003bb0:	2d00      	cmp	r5, #0
10003bb2:	d115      	bne.n	10003be0 <__aeabi_fsub+0x2a0>
10003bb4:	4665      	mov	r5, ip
10003bb6:	2d00      	cmp	r5, #0
10003bb8:	d147      	bne.n	10003c4a <__aeabi_fsub+0x30a>
10003bba:	2f00      	cmp	r7, #0
10003bbc:	d0c5      	beq.n	10003b4a <__aeabi_fsub+0x20a>
10003bbe:	1c3b      	adds	r3, r7, #0
10003bc0:	1c0d      	adds	r5, r1, #0
10003bc2:	2601      	movs	r6, #1
10003bc4:	2400      	movs	r4, #0
10003bc6:	e6d9      	b.n	1000397c <__aeabi_fsub+0x3c>
10003bc8:	4276      	negs	r6, r6
10003bca:	2d00      	cmp	r5, #0
10003bcc:	d126      	bne.n	10003c1c <__aeabi_fsub+0x2dc>
10003bce:	4665      	mov	r5, ip
10003bd0:	2d00      	cmp	r5, #0
10003bd2:	d000      	beq.n	10003bd6 <__aeabi_fsub+0x296>
10003bd4:	e07d      	b.n	10003cd2 <__aeabi_fsub+0x392>
10003bd6:	1c46      	adds	r6, r0, #1
10003bd8:	1c3b      	adds	r3, r7, #0
10003bda:	1c04      	adds	r4, r0, #0
10003bdc:	1c15      	adds	r5, r2, #0
10003bde:	e6cd      	b.n	1000397c <__aeabi_fsub+0x3c>
10003be0:	4665      	mov	r5, ip
10003be2:	2d00      	cmp	r5, #0
10003be4:	d140      	bne.n	10003c68 <__aeabi_fsub+0x328>
10003be6:	2f00      	cmp	r7, #0
10003be8:	d107      	bne.n	10003bfa <__aeabi_fsub+0x2ba>
10003bea:	2180      	movs	r1, #128	; 0x80
10003bec:	2200      	movs	r2, #0
10003bee:	004e      	lsls	r6, r1, #1
10003bf0:	4b1c      	ldr	r3, [pc, #112]	; (10003c64 <__aeabi_fsub+0x324>)
10003bf2:	24ff      	movs	r4, #255	; 0xff
10003bf4:	e6d5      	b.n	100039a2 <__aeabi_fsub+0x62>
10003bf6:	28ff      	cmp	r0, #255	; 0xff
10003bf8:	d194      	bne.n	10003b24 <__aeabi_fsub+0x1e4>
10003bfa:	2080      	movs	r0, #128	; 0x80
10003bfc:	1c3b      	adds	r3, r7, #0
10003bfe:	1c0d      	adds	r5, r1, #0
10003c00:	0046      	lsls	r6, r0, #1
10003c02:	24ff      	movs	r4, #255	; 0xff
10003c04:	e6ba      	b.n	1000397c <__aeabi_fsub+0x3c>
10003c06:	3e01      	subs	r6, #1
10003c08:	2e00      	cmp	r6, #0
10003c0a:	d1f4      	bne.n	10003bf6 <__aeabi_fsub+0x2b6>
10003c0c:	1b3b      	subs	r3, r7, r4
10003c0e:	1c0d      	adds	r5, r1, #0
10003c10:	1c04      	adds	r4, r0, #0
10003c12:	e702      	b.n	10003a1a <__aeabi_fsub+0xda>
10003c14:	2580      	movs	r5, #128	; 0x80
10003c16:	006e      	lsls	r6, r5, #1
10003c18:	2304      	movs	r3, #4
10003c1a:	e6c2      	b.n	100039a2 <__aeabi_fsub+0x62>
10003c1c:	28ff      	cmp	r0, #255	; 0xff
10003c1e:	d052      	beq.n	10003cc6 <__aeabi_fsub+0x386>
10003c20:	2480      	movs	r4, #128	; 0x80
10003c22:	4661      	mov	r1, ip
10003c24:	04e3      	lsls	r3, r4, #19
10003c26:	4319      	orrs	r1, r3
10003c28:	468c      	mov	ip, r1
10003c2a:	2301      	movs	r3, #1
10003c2c:	2e1b      	cmp	r6, #27
10003c2e:	dc09      	bgt.n	10003c44 <__aeabi_fsub+0x304>
10003c30:	2120      	movs	r1, #32
10003c32:	4664      	mov	r4, ip
10003c34:	40f4      	lsrs	r4, r6
10003c36:	4665      	mov	r5, ip
10003c38:	1b8e      	subs	r6, r1, r6
10003c3a:	40b5      	lsls	r5, r6
10003c3c:	1c2b      	adds	r3, r5, #0
10003c3e:	1e59      	subs	r1, r3, #1
10003c40:	418b      	sbcs	r3, r1
10003c42:	4323      	orrs	r3, r4
10003c44:	19db      	adds	r3, r3, r7
10003c46:	1c04      	adds	r4, r0, #0
10003c48:	e6d8      	b.n	100039fc <__aeabi_fsub+0xbc>
10003c4a:	2f00      	cmp	r7, #0
10003c4c:	d01e      	beq.n	10003c8c <__aeabi_fsub+0x34c>
10003c4e:	1beb      	subs	r3, r5, r7
10003c50:	0158      	lsls	r0, r3, #5
10003c52:	d54b      	bpl.n	10003cec <__aeabi_fsub+0x3ac>
10003c54:	1b7b      	subs	r3, r7, r5
10003c56:	2601      	movs	r6, #1
10003c58:	1c0d      	adds	r5, r1, #0
10003c5a:	2400      	movs	r4, #0
10003c5c:	e68e      	b.n	1000397c <__aeabi_fsub+0x3c>
10003c5e:	46c0      	nop			; (mov r8, r8)
10003c60:	fbffffff 	.word	0xfbffffff
10003c64:	03fffffc 	.word	0x03fffffc
10003c68:	2f00      	cmp	r7, #0
10003c6a:	d100      	bne.n	10003c6e <__aeabi_fsub+0x32e>
10003c6c:	e6fa      	b.n	10003a64 <__aeabi_fsub+0x124>
10003c6e:	2080      	movs	r0, #128	; 0x80
10003c70:	08eb      	lsrs	r3, r5, #3
10003c72:	03c4      	lsls	r4, r0, #15
10003c74:	4223      	tst	r3, r4
10003c76:	d037      	beq.n	10003ce8 <__aeabi_fsub+0x3a8>
10003c78:	08ff      	lsrs	r7, r7, #3
10003c7a:	4227      	tst	r7, r4
10003c7c:	d134      	bne.n	10003ce8 <__aeabi_fsub+0x3a8>
10003c7e:	1c3b      	adds	r3, r7, #0
10003c80:	1c0d      	adds	r5, r1, #0
10003c82:	2280      	movs	r2, #128	; 0x80
10003c84:	00db      	lsls	r3, r3, #3
10003c86:	0056      	lsls	r6, r2, #1
10003c88:	24ff      	movs	r4, #255	; 0xff
10003c8a:	e677      	b.n	1000397c <__aeabi_fsub+0x3c>
10003c8c:	4663      	mov	r3, ip
10003c8e:	1c15      	adds	r5, r2, #0
10003c90:	2601      	movs	r6, #1
10003c92:	2400      	movs	r4, #0
10003c94:	e672      	b.n	1000397c <__aeabi_fsub+0x3c>
10003c96:	4664      	mov	r4, ip
10003c98:	2c00      	cmp	r4, #0
10003c9a:	d014      	beq.n	10003cc6 <__aeabi_fsub+0x386>
10003c9c:	2f00      	cmp	r7, #0
10003c9e:	d100      	bne.n	10003ca2 <__aeabi_fsub+0x362>
10003ca0:	e6e0      	b.n	10003a64 <__aeabi_fsub+0x124>
10003ca2:	2380      	movs	r3, #128	; 0x80
10003ca4:	08e6      	lsrs	r6, r4, #3
10003ca6:	03d8      	lsls	r0, r3, #15
10003ca8:	1c31      	adds	r1, r6, #0
10003caa:	4206      	tst	r6, r0
10003cac:	d003      	beq.n	10003cb6 <__aeabi_fsub+0x376>
10003cae:	08f9      	lsrs	r1, r7, #3
10003cb0:	4201      	tst	r1, r0
10003cb2:	d000      	beq.n	10003cb6 <__aeabi_fsub+0x376>
10003cb4:	1c31      	adds	r1, r6, #0
10003cb6:	1c15      	adds	r5, r2, #0
10003cb8:	2280      	movs	r2, #128	; 0x80
10003cba:	00cb      	lsls	r3, r1, #3
10003cbc:	0056      	lsls	r6, r2, #1
10003cbe:	24ff      	movs	r4, #255	; 0xff
10003cc0:	e65c      	b.n	1000397c <__aeabi_fsub+0x3c>
10003cc2:	28ff      	cmp	r0, #255	; 0xff
10003cc4:	d1b1      	bne.n	10003c2a <__aeabi_fsub+0x2ea>
10003cc6:	2080      	movs	r0, #128	; 0x80
10003cc8:	1c3b      	adds	r3, r7, #0
10003cca:	1c15      	adds	r5, r2, #0
10003ccc:	0046      	lsls	r6, r0, #1
10003cce:	24ff      	movs	r4, #255	; 0xff
10003cd0:	e654      	b.n	1000397c <__aeabi_fsub+0x3c>
10003cd2:	3e01      	subs	r6, #1
10003cd4:	2e00      	cmp	r6, #0
10003cd6:	d1f4      	bne.n	10003cc2 <__aeabi_fsub+0x382>
10003cd8:	197b      	adds	r3, r7, r5
10003cda:	1c04      	adds	r4, r0, #0
10003cdc:	e68e      	b.n	100039fc <__aeabi_fsub+0xbc>
10003cde:	1c3b      	adds	r3, r7, #0
10003ce0:	1c15      	adds	r5, r2, #0
10003ce2:	2601      	movs	r6, #1
10003ce4:	2400      	movs	r4, #0
10003ce6:	e649      	b.n	1000397c <__aeabi_fsub+0x3c>
10003ce8:	1c15      	adds	r5, r2, #0
10003cea:	e7ca      	b.n	10003c82 <__aeabi_fsub+0x342>
10003cec:	2b00      	cmp	r3, #0
10003cee:	d100      	bne.n	10003cf2 <__aeabi_fsub+0x3b2>
10003cf0:	e72b      	b.n	10003b4a <__aeabi_fsub+0x20a>
10003cf2:	e7cc      	b.n	10003c8e <__aeabi_fsub+0x34e>

10003cf4 <__aeabi_f2iz>:
10003cf4:	0243      	lsls	r3, r0, #9
10003cf6:	0042      	lsls	r2, r0, #1
10003cf8:	0a59      	lsrs	r1, r3, #9
10003cfa:	0e13      	lsrs	r3, r2, #24
10003cfc:	0fc2      	lsrs	r2, r0, #31
10003cfe:	2000      	movs	r0, #0
10003d00:	2b7e      	cmp	r3, #126	; 0x7e
10003d02:	dd0d      	ble.n	10003d20 <__aeabi_f2iz+0x2c>
10003d04:	2b9d      	cmp	r3, #157	; 0x9d
10003d06:	dc0c      	bgt.n	10003d22 <__aeabi_f2iz+0x2e>
10003d08:	2080      	movs	r0, #128	; 0x80
10003d0a:	0400      	lsls	r0, r0, #16
10003d0c:	4301      	orrs	r1, r0
10003d0e:	2b95      	cmp	r3, #149	; 0x95
10003d10:	dc0a      	bgt.n	10003d28 <__aeabi_f2iz+0x34>
10003d12:	2096      	movs	r0, #150	; 0x96
10003d14:	1ac3      	subs	r3, r0, r3
10003d16:	40d9      	lsrs	r1, r3
10003d18:	4248      	negs	r0, r1
10003d1a:	2a00      	cmp	r2, #0
10003d1c:	d100      	bne.n	10003d20 <__aeabi_f2iz+0x2c>
10003d1e:	1c08      	adds	r0, r1, #0
10003d20:	4770      	bx	lr
10003d22:	4903      	ldr	r1, [pc, #12]	; (10003d30 <__aeabi_f2iz+0x3c>)
10003d24:	1850      	adds	r0, r2, r1
10003d26:	e7fb      	b.n	10003d20 <__aeabi_f2iz+0x2c>
10003d28:	3b96      	subs	r3, #150	; 0x96
10003d2a:	4099      	lsls	r1, r3
10003d2c:	e7f4      	b.n	10003d18 <__aeabi_f2iz+0x24>
10003d2e:	46c0      	nop			; (mov r8, r8)
10003d30:	7fffffff 	.word	0x7fffffff

10003d34 <__aeabi_ui2f>:
10003d34:	b510      	push	{r4, lr}
10003d36:	1e04      	subs	r4, r0, #0
10003d38:	d034      	beq.n	10003da4 <__aeabi_ui2f+0x70>
10003d3a:	f000 f84f 	bl	10003ddc <__clzsi2>
10003d3e:	239e      	movs	r3, #158	; 0x9e
10003d40:	1a1b      	subs	r3, r3, r0
10003d42:	2b96      	cmp	r3, #150	; 0x96
10003d44:	dc07      	bgt.n	10003d56 <__aeabi_ui2f+0x22>
10003d46:	3808      	subs	r0, #8
10003d48:	4084      	lsls	r4, r0
10003d4a:	0264      	lsls	r4, r4, #9
10003d4c:	0a61      	lsrs	r1, r4, #9
10003d4e:	b2db      	uxtb	r3, r3
10003d50:	05d8      	lsls	r0, r3, #23
10003d52:	4308      	orrs	r0, r1
10003d54:	bd10      	pop	{r4, pc}
10003d56:	2b99      	cmp	r3, #153	; 0x99
10003d58:	dd0a      	ble.n	10003d70 <__aeabi_ui2f+0x3c>
10003d5a:	1c02      	adds	r2, r0, #0
10003d5c:	321b      	adds	r2, #27
10003d5e:	1c21      	adds	r1, r4, #0
10003d60:	4091      	lsls	r1, r2
10003d62:	1c0a      	adds	r2, r1, #0
10003d64:	1e51      	subs	r1, r2, #1
10003d66:	418a      	sbcs	r2, r1
10003d68:	2105      	movs	r1, #5
10003d6a:	1a09      	subs	r1, r1, r0
10003d6c:	40cc      	lsrs	r4, r1
10003d6e:	4314      	orrs	r4, r2
10003d70:	2805      	cmp	r0, #5
10003d72:	dc1a      	bgt.n	10003daa <__aeabi_ui2f+0x76>
10003d74:	4a18      	ldr	r2, [pc, #96]	; (10003dd8 <__aeabi_ui2f+0xa4>)
10003d76:	210f      	movs	r1, #15
10003d78:	4022      	ands	r2, r4
10003d7a:	400c      	ands	r4, r1
10003d7c:	2c04      	cmp	r4, #4
10003d7e:	d000      	beq.n	10003d82 <__aeabi_ui2f+0x4e>
10003d80:	3204      	adds	r2, #4
10003d82:	0151      	lsls	r1, r2, #5
10003d84:	d505      	bpl.n	10003d92 <__aeabi_ui2f+0x5e>
10003d86:	249f      	movs	r4, #159	; 0x9f
10003d88:	1a23      	subs	r3, r4, r0
10003d8a:	2bff      	cmp	r3, #255	; 0xff
10003d8c:	d021      	beq.n	10003dd2 <__aeabi_ui2f+0x9e>
10003d8e:	4812      	ldr	r0, [pc, #72]	; (10003dd8 <__aeabi_ui2f+0xa4>)
10003d90:	4002      	ands	r2, r0
10003d92:	1c59      	adds	r1, r3, #1
10003d94:	b2cc      	uxtb	r4, r1
10003d96:	08d2      	lsrs	r2, r2, #3
10003d98:	2c01      	cmp	r4, #1
10003d9a:	dd09      	ble.n	10003db0 <__aeabi_ui2f+0x7c>
10003d9c:	0250      	lsls	r0, r2, #9
10003d9e:	0a41      	lsrs	r1, r0, #9
10003da0:	b2db      	uxtb	r3, r3
10003da2:	e7d5      	b.n	10003d50 <__aeabi_ui2f+0x1c>
10003da4:	2300      	movs	r3, #0
10003da6:	2100      	movs	r1, #0
10003da8:	e7d2      	b.n	10003d50 <__aeabi_ui2f+0x1c>
10003daa:	1f42      	subs	r2, r0, #5
10003dac:	4094      	lsls	r4, r2
10003dae:	e7e1      	b.n	10003d74 <__aeabi_ui2f+0x40>
10003db0:	2a00      	cmp	r2, #0
10003db2:	d00b      	beq.n	10003dcc <__aeabi_ui2f+0x98>
10003db4:	2b00      	cmp	r3, #0
10003db6:	d006      	beq.n	10003dc6 <__aeabi_ui2f+0x92>
10003db8:	2180      	movs	r1, #128	; 0x80
10003dba:	03cc      	lsls	r4, r1, #15
10003dbc:	4322      	orrs	r2, r4
10003dbe:	0252      	lsls	r2, r2, #9
10003dc0:	0a51      	lsrs	r1, r2, #9
10003dc2:	b2db      	uxtb	r3, r3
10003dc4:	e7c4      	b.n	10003d50 <__aeabi_ui2f+0x1c>
10003dc6:	0250      	lsls	r0, r2, #9
10003dc8:	0a41      	lsrs	r1, r0, #9
10003dca:	e7c1      	b.n	10003d50 <__aeabi_ui2f+0x1c>
10003dcc:	b2db      	uxtb	r3, r3
10003dce:	2100      	movs	r1, #0
10003dd0:	e7be      	b.n	10003d50 <__aeabi_ui2f+0x1c>
10003dd2:	23ff      	movs	r3, #255	; 0xff
10003dd4:	2100      	movs	r1, #0
10003dd6:	e7bb      	b.n	10003d50 <__aeabi_ui2f+0x1c>
10003dd8:	fbffffff 	.word	0xfbffffff

10003ddc <__clzsi2>:
10003ddc:	211c      	movs	r1, #28
10003dde:	2301      	movs	r3, #1
10003de0:	041b      	lsls	r3, r3, #16
10003de2:	4298      	cmp	r0, r3
10003de4:	d301      	bcc.n	10003dea <__clzsi2+0xe>
10003de6:	0c00      	lsrs	r0, r0, #16
10003de8:	3910      	subs	r1, #16
10003dea:	0a1b      	lsrs	r3, r3, #8
10003dec:	4298      	cmp	r0, r3
10003dee:	d301      	bcc.n	10003df4 <__clzsi2+0x18>
10003df0:	0a00      	lsrs	r0, r0, #8
10003df2:	3908      	subs	r1, #8
10003df4:	091b      	lsrs	r3, r3, #4
10003df6:	4298      	cmp	r0, r3
10003df8:	d301      	bcc.n	10003dfe <__clzsi2+0x22>
10003dfa:	0900      	lsrs	r0, r0, #4
10003dfc:	3904      	subs	r1, #4
10003dfe:	a202      	add	r2, pc, #8	; (adr r2, 10003e08 <__clzsi2+0x2c>)
10003e00:	5c10      	ldrb	r0, [r2, r0]
10003e02:	1840      	adds	r0, r0, r1
10003e04:	4770      	bx	lr
10003e06:	46c0      	nop			; (mov r8, r8)
10003e08:	02020304 	.word	0x02020304
10003e0c:	01010101 	.word	0x01010101
	...

Disassembly of section .VENEER_Code:

2000000c <HardFault_Veneer>:

/* ==================VENEERS VENEERS VENEERS VENEERS VENEERS=============== */
    .section ".XmcVeneerCode","ax",%progbits
.globl HardFault_Veneer
HardFault_Veneer:
    LDR R0, =HardFault_Handler
2000000c:	482c      	ldr	r0, [pc, #176]	; (200000c0 <CCU40_3_Veneer+0x20>)
    MOV PC,R0
2000000e:	4687      	mov	pc, r0
	...

2000002c <SVC_Veneer>:
    .long 0
    
/* ======================================================================== */
.globl SVC_Veneer
SVC_Veneer:
    LDR R0, =SVC_Handler
2000002c:	4825      	ldr	r0, [pc, #148]	; (200000c4 <CCU40_3_Veneer+0x24>)
    MOV PC,R0
2000002e:	4687      	mov	pc, r0
	...

20000038 <PendSV_Veneer>:
    .long 0
    .long 0
/* ======================================================================== */
.globl PendSV_Veneer
PendSV_Veneer:
    LDR R0, =PendSV_Handler
20000038:	4823      	ldr	r0, [pc, #140]	; (200000c8 <CCU40_3_Veneer+0x28>)
    MOV PC,R0
2000003a:	4687      	mov	pc, r0

2000003c <SysTick_Veneer>:
/* ======================================================================== */
.globl SysTick_Veneer 
SysTick_Veneer:
    LDR R0, =SysTick_Handler
2000003c:	4823      	ldr	r0, [pc, #140]	; (200000cc <CCU40_3_Veneer+0x2c>)
    MOV PC,R0
2000003e:	4687      	mov	pc, r0

20000040 <SCU_0_Veneer>:
/* ======================================================================== */
.globl SCU_0_Veneer 
SCU_0_Veneer:
    LDR R0, =SCU_0_IRQHandler
20000040:	4823      	ldr	r0, [pc, #140]	; (200000d0 <CCU40_3_Veneer+0x30>)
    MOV PC,R0
20000042:	4687      	mov	pc, r0

20000044 <SCU_1_Veneer>:
/* ======================================================================== */
.globl SCU_1_Veneer 
SCU_1_Veneer:
    LDR R0, =SCU_1_IRQHandler
20000044:	4823      	ldr	r0, [pc, #140]	; (200000d4 <CCU40_3_Veneer+0x34>)
    MOV PC,R0
20000046:	4687      	mov	pc, r0

20000048 <SCU_2_Veneer>:
/* ======================================================================== */
.globl SCU_2_Veneer
SCU_2_Veneer:
    LDR R0, =SCU_2_IRQHandler
20000048:	4823      	ldr	r0, [pc, #140]	; (200000d8 <CCU40_3_Veneer+0x38>)
    MOV PC,R0
2000004a:	4687      	mov	pc, r0

2000004c <SCU_3_Veneer>:
/* ======================================================================== */
.globl SCU_3_Veneer 
SCU_3_Veneer:
    LDR R0, =ERU0_0_IRQHandler
2000004c:	4823      	ldr	r0, [pc, #140]	; (200000dc <CCU40_3_Veneer+0x3c>)
    MOV PC,R0
2000004e:	4687      	mov	pc, r0

20000050 <SCU_4_Veneer>:
/* ======================================================================== */
.globl SCU_4_Veneer 
SCU_4_Veneer:
    LDR R0, =ERU0_1_IRQHandler
20000050:	4823      	ldr	r0, [pc, #140]	; (200000e0 <CCU40_3_Veneer+0x40>)
    MOV PC,R0
20000052:	4687      	mov	pc, r0

20000054 <SCU_5_Veneer>:
/* ======================================================================== */
.globl SCU_5_Veneer 
SCU_5_Veneer:
    LDR R0, =ERU0_2_IRQHandler
20000054:	4823      	ldr	r0, [pc, #140]	; (200000e4 <CCU40_3_Veneer+0x44>)
    MOV PC,R0
20000056:	4687      	mov	pc, r0

20000058 <SCU_6_Veneer>:
/* ======================================================================== */
.globl SCU_6_Veneer 
SCU_6_Veneer:
    LDR R0, =ERU0_3_IRQHandler
20000058:	4823      	ldr	r0, [pc, #140]	; (200000e8 <CCU40_3_Veneer+0x48>)
    MOV PC,R0
2000005a:	4687      	mov	pc, r0
	...

20000064 <USIC0_0_Veneer>:
    .long 0
    .long 0
/* ======================================================================== */
.globl USIC0_0_Veneer
USIC0_0_Veneer:
    LDR R0, =USIC0_0_IRQHandler
20000064:	4821      	ldr	r0, [pc, #132]	; (200000ec <CCU40_3_Veneer+0x4c>)
    MOV PC,R0
20000066:	4687      	mov	pc, r0

20000068 <USIC0_1_Veneer>:
/* ======================================================================== */
.globl USIC0_1_Veneer
USIC0_1_Veneer:
    LDR R0, =USIC0_1_IRQHandler
20000068:	4821      	ldr	r0, [pc, #132]	; (200000f0 <CCU40_3_Veneer+0x50>)
    MOV PC,R0
2000006a:	4687      	mov	pc, r0

2000006c <USIC0_2_Veneer>:
/* ======================================================================== */
.globl USIC0_2_Veneer
USIC0_2_Veneer:
    LDR R0, =USIC0_2_IRQHandler
2000006c:	4821      	ldr	r0, [pc, #132]	; (200000f4 <CCU40_3_Veneer+0x54>)
    MOV PC,R0
2000006e:	4687      	mov	pc, r0

20000070 <USIC0_3_Veneer>:
/* ======================================================================== */
.globl USIC0_3_Veneer
USIC0_3_Veneer:
    LDR R0, =USIC0_3_IRQHandler
20000070:	4821      	ldr	r0, [pc, #132]	; (200000f8 <CCU40_3_Veneer+0x58>)
    MOV PC,R0
20000072:	4687      	mov	pc, r0

20000074 <USIC0_4_Veneer>:
/* ======================================================================== */
.globl USIC0_4_Veneer
USIC0_4_Veneer:
    LDR R0, =USIC0_4_IRQHandler
20000074:	4821      	ldr	r0, [pc, #132]	; (200000fc <CCU40_3_Veneer+0x5c>)
    MOV PC,R0
20000076:	4687      	mov	pc, r0

20000078 <USIC0_5_Veneer>:
/* ======================================================================== */
.globl USIC0_5_Veneer
USIC0_5_Veneer:
    LDR R0, =USIC0_5_IRQHandler
20000078:	4821      	ldr	r0, [pc, #132]	; (20000100 <CCU40_3_Veneer+0x60>)
    MOV PC,R0
2000007a:	4687      	mov	pc, r0

2000007c <VADC0_C0_0_Veneer>:
/* ======================================================================== */
.globl VADC0_C0_0_Veneer 
VADC0_C0_0_Veneer:
    LDR R0, =VADC0_C0_0_IRQHandler
2000007c:	4821      	ldr	r0, [pc, #132]	; (20000104 <CCU40_3_Veneer+0x64>)
    MOV PC,R0
2000007e:	4687      	mov	pc, r0

20000080 <VADC0_C0_1_Veneer>:
/* ======================================================================== */
.globl VADC0_C0_1_Veneer
VADC0_C0_1_Veneer:
    LDR R0, =VADC0_C0_1_IRQHandler
20000080:	4821      	ldr	r0, [pc, #132]	; (20000108 <CCU40_3_Veneer+0x68>)
    MOV PC,R0
20000082:	4687      	mov	pc, r0
	...

20000094 <CCU40_0_Veneer>:
    .long 0
    .long 0
/* ======================================================================== */
.globl CCU40_0_Veneer
CCU40_0_Veneer:
    LDR R0, =CCU40_0_IRQHandler
20000094:	481d      	ldr	r0, [pc, #116]	; (2000010c <CCU40_3_Veneer+0x6c>)
    MOV PC,R0
20000096:	4687      	mov	pc, r0

20000098 <CCU40_1_Veneer>:
/* ======================================================================== */
.globl CCU40_1_Veneer
CCU40_1_Veneer:
    LDR R0, =CCU40_1_IRQHandler
20000098:	481d      	ldr	r0, [pc, #116]	; (20000110 <CCU40_3_Veneer+0x70>)
    MOV PC,R0
2000009a:	4687      	mov	pc, r0

2000009c <CCU40_2_Veneer>:
/* ======================================================================== */
.globl CCU40_2_Veneer
CCU40_2_Veneer:
    LDR R0, =CCU40_2_IRQHandler
2000009c:	481d      	ldr	r0, [pc, #116]	; (20000114 <CCU40_3_Veneer+0x74>)
    MOV PC,R0
2000009e:	4687      	mov	pc, r0

200000a0 <CCU40_3_Veneer>:
/* ======================================================================== */
.globl CCU40_3_Veneer
CCU40_3_Veneer:
    LDR R0, =CCU40_3_IRQHandler
200000a0:	481d      	ldr	r0, [pc, #116]	; (20000118 <CCU40_3_Veneer+0x78>)
    MOV PC,R0
200000a2:	4687      	mov	pc, r0
	...

/* ==================VENEERS VENEERS VENEERS VENEERS VENEERS=============== */
    .section ".XmcVeneerCode","ax",%progbits
.globl HardFault_Veneer
HardFault_Veneer:
    LDR R0, =HardFault_Handler
200000c0:	100010d7 	.word	0x100010d7
    .long 0
    
/* ======================================================================== */
.globl SVC_Veneer
SVC_Veneer:
    LDR R0, =SVC_Handler
200000c4:	100010d9 	.word	0x100010d9
    .long 0
    .long 0
/* ======================================================================== */
.globl PendSV_Veneer
PendSV_Veneer:
    LDR R0, =PendSV_Handler
200000c8:	100010db 	.word	0x100010db
    MOV PC,R0
/* ======================================================================== */
.globl SysTick_Veneer 
SysTick_Veneer:
    LDR R0, =SysTick_Handler
200000cc:	100010dd 	.word	0x100010dd
    MOV PC,R0
/* ======================================================================== */
.globl SCU_0_Veneer 
SCU_0_Veneer:
    LDR R0, =SCU_0_IRQHandler
200000d0:	100010df 	.word	0x100010df
    MOV PC,R0
/* ======================================================================== */
.globl SCU_1_Veneer 
SCU_1_Veneer:
    LDR R0, =SCU_1_IRQHandler
200000d4:	100010e1 	.word	0x100010e1
    MOV PC,R0
/* ======================================================================== */
.globl SCU_2_Veneer
SCU_2_Veneer:
    LDR R0, =SCU_2_IRQHandler
200000d8:	100010e3 	.word	0x100010e3
    MOV PC,R0
/* ======================================================================== */
.globl SCU_3_Veneer 
SCU_3_Veneer:
    LDR R0, =ERU0_0_IRQHandler
200000dc:	100010e5 	.word	0x100010e5
    MOV PC,R0
/* ======================================================================== */
.globl SCU_4_Veneer 
SCU_4_Veneer:
    LDR R0, =ERU0_1_IRQHandler
200000e0:	100010e7 	.word	0x100010e7
    MOV PC,R0
/* ======================================================================== */
.globl SCU_5_Veneer 
SCU_5_Veneer:
    LDR R0, =ERU0_2_IRQHandler
200000e4:	100010e9 	.word	0x100010e9
    MOV PC,R0
/* ======================================================================== */
.globl SCU_6_Veneer 
SCU_6_Veneer:
    LDR R0, =ERU0_3_IRQHandler
200000e8:	100010eb 	.word	0x100010eb
    .long 0
    .long 0
/* ======================================================================== */
.globl USIC0_0_Veneer
USIC0_0_Veneer:
    LDR R0, =USIC0_0_IRQHandler
200000ec:	100010f9 	.word	0x100010f9
    MOV PC,R0
/* ======================================================================== */
.globl USIC0_1_Veneer
USIC0_1_Veneer:
    LDR R0, =USIC0_1_IRQHandler
200000f0:	100010fb 	.word	0x100010fb
    MOV PC,R0
/* ======================================================================== */
.globl USIC0_2_Veneer
USIC0_2_Veneer:
    LDR R0, =USIC0_2_IRQHandler
200000f4:	100010fd 	.word	0x100010fd
    MOV PC,R0
/* ======================================================================== */
.globl USIC0_3_Veneer
USIC0_3_Veneer:
    LDR R0, =USIC0_3_IRQHandler
200000f8:	100010ff 	.word	0x100010ff
    MOV PC,R0
/* ======================================================================== */
.globl USIC0_4_Veneer
USIC0_4_Veneer:
    LDR R0, =USIC0_4_IRQHandler
200000fc:	10001101 	.word	0x10001101
    MOV PC,R0
/* ======================================================================== */
.globl USIC0_5_Veneer
USIC0_5_Veneer:
    LDR R0, =USIC0_5_IRQHandler
20000100:	10001103 	.word	0x10001103
    MOV PC,R0
/* ======================================================================== */
.globl VADC0_C0_0_Veneer 
VADC0_C0_0_Veneer:
    LDR R0, =VADC0_C0_0_IRQHandler
20000104:	100010ed 	.word	0x100010ed
    MOV PC,R0
/* ======================================================================== */
.globl VADC0_C0_1_Veneer
VADC0_C0_1_Veneer:
    LDR R0, =VADC0_C0_1_IRQHandler
20000108:	100010ef 	.word	0x100010ef
    .long 0
    .long 0
/* ======================================================================== */
.globl CCU40_0_Veneer
CCU40_0_Veneer:
    LDR R0, =CCU40_0_IRQHandler
2000010c:	100010f1 	.word	0x100010f1
    MOV PC,R0
/* ======================================================================== */
.globl CCU40_1_Veneer
CCU40_1_Veneer:
    LDR R0, =CCU40_1_IRQHandler
20000110:	100010f3 	.word	0x100010f3
    MOV PC,R0
/* ======================================================================== */
.globl CCU40_2_Veneer
CCU40_2_Veneer:
    LDR R0, =CCU40_2_IRQHandler
20000114:	100010f5 	.word	0x100010f5
    MOV PC,R0
/* ======================================================================== */
.globl CCU40_3_Veneer
CCU40_3_Veneer:
    LDR R0, =CCU40_3_IRQHandler
20000118:	1000132d 	.word	0x1000132d
