   1              		.cpu cortex-m0
   2              		.fpu softvfp
   3              		.eabi_attribute 20, 1
   4              		.eabi_attribute 21, 1
   5              		.eabi_attribute 23, 3
   6              		.eabi_attribute 24, 1
   7              		.eabi_attribute 25, 1
   8              		.eabi_attribute 26, 1
   9              		.eabi_attribute 30, 4
  10              		.eabi_attribute 34, 0
  11              		.eabi_attribute 18, 4
  12              		.code	16
  13              		.file	"Main.c"
  14              		.global	__aeabi_idiv
  15              		.section	.text.startup.main,"ax",%progbits
  16              		.align	1
  17              		.global	main
  18              		.code	16
  19              		.thumb_func
  21              	main:
  22 0000 F0B5     		push	{r4, r5, r6, r7, lr}
  23 0002 394D     		ldr	r5, .L25
  24 0004 85B0     		sub	sp, sp, #20
  25 0006 FFF7FEFF 		bl	DAVE_Init
  26 000a 6A69     		ldr	r2, [r5, #20]
  27 000c 374B     		ldr	r3, .L25+4
  28 000e C021     		mov	r1, #192
  29 0010 1340     		and	r3, r2
  30 0012 6B61     		str	r3, [r5, #20]
  31 0014 6869     		ldr	r0, [r5, #20]
  32 0016 0C02     		lsl	r4, r1, #8
  33 0018 0443     		orr	r4, r0
  34 001a 2026     		mov	r6, #32
  35 001c 6C61     		str	r4, [r5, #20]
  36 001e 6E60     		str	r6, [r5, #4]
  37 0020 6F69     		ldr	r7, [r5, #20]
  38 0022 334A     		ldr	r2, .L25+8
  39 0024 8023     		mov	r3, #128
  40 0026 3A40     		and	r2, r7
  41 0028 6A61     		str	r2, [r5, #20]
  42 002a 6869     		ldr	r0, [r5, #20]
  43 002c 5903     		lsl	r1, r3, #13
  44 002e 0143     		orr	r1, r0
  45 0030 6961     		str	r1, [r5, #20]
  46 0032 2C6C     		ldr	r4, [r5, #64]
  47 0034 8026     		mov	r6, #128
  48 0036 F704     		lsl	r7, r6, #19
  49 0038 2E48     		ldr	r0, .L25+12
  50 003a 2743     		orr	r7, r4
  51 003c 2F64     		str	r7, [r5, #64]
  52 003e 6B6A     		ldr	r3, [r5, #36]
  53 0040 4369     		ldr	r3, [r0, #20]
  54 0042 F822     		mov	r2, #248
  55 0044 9343     		bic	r3, r2
  56 0046 4361     		str	r3, [r0, #20]
  57 0048 4169     		ldr	r1, [r0, #20]
  58 004a 1024     		mov	r4, #16
  59 004c 2143     		orr	r1, r4
  60 004e 4161     		str	r1, [r0, #20]
  61 0050 066C     		ldr	r6, [r0, #64]
  62 0052 8027     		mov	r7, #128
  63 0054 FB02     		lsl	r3, r7, #11
  64 0056 3343     		orr	r3, r6
  65 0058 0364     		str	r3, [r0, #64]
  66 005a 436A     		ldr	r3, [r0, #36]
  67 005c 6A6A     		ldr	r2, [r5, #36]
  68 005e 4020     		mov	r0, #64
  69 0060 0240     		and	r2, r0
  70 0062 0020     		mov	r0, #0
  71 0064 041C     		mov	r4, r0
  72 0066 031C     		mov	r3, r0
  73 0068 0290     		str	r0, [sp, #8]
  74 006a 8446     		mov	ip, r0
  75              	.L22:
  76 006c 0021     		mov	r1, #0
  77 006e 0133     		add	r3, r3, #1
  78 0070 0134     		add	r4, r4, #1
  79 0072 6427     		mov	r7, #100
  80 0074 0191     		str	r1, [sp, #4]
  81              	.L5:
  82 0076 6E6A     		ldr	r6, [r5, #36]
  83 0078 7606     		lsl	r6, r6, #25
  84 007a 03D5     		bpl	.L3
  85 007c 019E     		ldr	r6, [sp, #4]
  86 007e 0136     		add	r6, r6, #1
  87 0080 0196     		str	r6, [sp, #4]
  88 0082 00E0     		b	.L4
  89              	.L3:
  90 0084 0131     		add	r1, r1, #1
  91              	.L4:
  92 0086 013F     		sub	r7, r7, #1
  93 0088 002F     		cmp	r7, #0
  94 008a F4D1     		bne	.L5
  95 008c 0029     		cmp	r1, #0
  96 008e 0BD0     		beq	.L6
  97 0090 002A     		cmp	r2, #0
  98 0092 0DD0     		beq	.L7
  99 0094 174A     		ldr	r2, .L25+12
 100 0096 5810     		asr	r0, r3, #1
 101 0098 576A     		ldr	r7, [r2, #36]
 102 009a FE06     		lsl	r6, r7, #27
 103 009c 1DD4     		bmi	.L9
 104 009e D800     		lsl	r0, r3, #3
 105 00a0 0A21     		mov	r1, #10
 106 00a2 FFF7FEFF 		bl	__aeabi_idiv
 107 00a6 18E0     		b	.L9
 108              	.L6:
 109 00a8 019F     		ldr	r7, [sp, #4]
 110 00aa 002F     		cmp	r7, #0
 111 00ac 00D0     		beq	.L7
 112 00ae 0122     		mov	r2, #1
 113              	.L7:
 114 00b0 8442     		cmp	r4, r0
 115 00b2 DBDB     		blt	.L22
 116 00b4 6446     		mov	r4, ip
 117 00b6 002C     		cmp	r4, #0
 118 00b8 0DD1     		bne	.L11
 119 00ba 0299     		ldr	r1, [sp, #8]
 120 00bc 0129     		cmp	r1, #1
 121 00be 03D1     		bne	.L14
 122 00c0 2026     		mov	r6, #32
 123 00c2 6E60     		str	r6, [r5, #4]
 124 00c4 6446     		mov	r4, ip
 125 00c6 D1E7     		b	.L22
 126              	.L14:
 127 00c8 0124     		mov	r4, #1
 128              	.L23:
 129 00ca 0B4E     		ldr	r6, .L25+16
 130 00cc 0294     		str	r4, [sp, #8]
 131 00ce 0024     		mov	r4, #0
 132 00d0 6E60     		str	r6, [r5, #4]
 133 00d2 A446     		mov	ip, r4
 134 00d4 CAE7     		b	.L22
 135              	.L11:
 136 00d6 0024     		mov	r4, #0
 137 00d8 F7E7     		b	.L23
 138              	.L9:
 139 00da 0023     		mov	r3, #0
 140 00dc 1A1C     		mov	r2, r3
 141 00de 8442     		cmp	r4, r0
 142 00e0 F9DA     		bge	.L11
 143 00e2 0121     		mov	r1, #1
 144 00e4 8C46     		mov	ip, r1
 145 00e6 C1E7     		b	.L22
 146              	.L26:
 147              		.align	2
 148              	.L25:
 149 00e8 00000440 		.word	1074003968
 150 00ec FF07FFFF 		.word	-63489
 151 00f0 FFFF07FF 		.word	-16252929
 152 00f4 00010440 		.word	1074004224
 153 00f8 20002000 		.word	2097184
 155              		.global	__aeabi_uidivmod
 156              		.section	.text.IRQ_Hdlr_26,"ax",%progbits
 157              		.align	1
 158              		.global	IRQ_Hdlr_26
 159              		.code	16
 160              		.thumb_func
 162              	IRQ_Hdlr_26:
 163 0000 38B5     		push	{r3, r4, r5, lr}
 164 0002 094C     		ldr	r4, .L29
 165 0004 2368     		ldr	r3, [r4]
 166 0006 002B     		cmp	r3, #0
 167 0008 09D1     		bne	.L28
 168 000a 6568     		ldr	r5, [r4, #4]
 169 000c 0721     		mov	r1, #7
 170 000e 281C     		mov	r0, r5
 171 0010 FFF7FEFF 		bl	__aeabi_uidivmod
 172 0014 0131     		add	r1, r1, #1
 173 0016 8900     		lsl	r1, r1, #2
 174 0018 0135     		add	r5, r5, #1
 175 001a 2160     		str	r1, [r4]
 176 001c 6560     		str	r5, [r4, #4]
 177              	.L28:
 178 001e 2068     		ldr	r0, [r4]
 179              		@ sp needed for prologue
 180 0020 0138     		sub	r0, r0, #1
 181 0022 2060     		str	r0, [r4]
 182 0024 38BD     		pop	{r3, r4, r5, pc}
 183              	.L30:
 184 0026 C046     		.align	2
 185              	.L29:
 186 0028 00000000 		.word	.LANCHOR0
 188              		.bss
 189              		.align	2
 190              		.set	.LANCHOR0,. + 0
 193              	cycles.5739:
 194 0000 00000000 		.space	4
 197              	state.5738:
 198 0004 00000000 		.space	4
 199              		.ident	"GCC: (GNU Tools for ARM Embedded Processors) 4.7.4 20130913 (release) [ARM/embedded-4_7-br
DEFINED SYMBOLS
                            *ABS*:00000000 Main.c
C:\Users\Patrick\AppData\Local\Temp\ccMKuRES.s:16     .text.startup.main:00000000 $t
C:\Users\Patrick\AppData\Local\Temp\ccMKuRES.s:21     .text.startup.main:00000000 main
C:\Users\Patrick\AppData\Local\Temp\ccMKuRES.s:149    .text.startup.main:000000e8 $d
C:\Users\Patrick\AppData\Local\Temp\ccMKuRES.s:157    .text.IRQ_Hdlr_26:00000000 $t
C:\Users\Patrick\AppData\Local\Temp\ccMKuRES.s:162    .text.IRQ_Hdlr_26:00000000 IRQ_Hdlr_26
C:\Users\Patrick\AppData\Local\Temp\ccMKuRES.s:186    .text.IRQ_Hdlr_26:00000028 $d
C:\Users\Patrick\AppData\Local\Temp\ccMKuRES.s:189    .bss:00000000 $d
C:\Users\Patrick\AppData\Local\Temp\ccMKuRES.s:193    .bss:00000000 cycles.5739
C:\Users\Patrick\AppData\Local\Temp\ccMKuRES.s:197    .bss:00000004 state.5738

UNDEFINED SYMBOLS
__aeabi_idiv
DAVE_Init
__aeabi_uidivmod
